
compiler_outputs/div.bin:	file format ELF32-fgpu

Disassembly of section .text:
__udivsi3:
       0:	06 00 00 11 	addi	r6, r0, 0
       4:	04 04 00 11 	addi	r4, r0, 1
       8:	05 04 00 10 	add	r5, r0, r1

LBB0_1:
       c:	c3 14 00 10 	add	r3, r6, r5
      10:	67 04 00 29 	srli	r7, r3, 1
      14:	e3 08 00 51 	mul	r3, r7, r2
      18:	28 0c 00 b6 	sltu	r8, r1, r3
      1c:	03 1c 00 10 	add	r3, r0, r7
      20:	c3 20 00 40 	movn	r3, r6, r8
      24:	e5 20 00 40 	movn	r5, r7, r8
      28:	a6 0c 00 12 	sub	r6, r5, r3
      2c:	87 18 00 b6 	sltu	r7, r4, r6
      30:	06 0c 00 10 	add	r6, r0, r3
      34:	07 d4 ff 63 	bne	r7, r0, -11
      38:	01 0c 00 10 	add	r1, r0, r3
      3c:	00 00 00 92 	ret

__divsi3:
      40:	ff fb ff 11 	addi	sp, sp, -2
      44:	e9 07 00 dc 	lswi	r9, sp[1]
      48:	ea 03 00 dc 	lswi	r10, sp[0]
      4c:	09 08 00 10 	add	r9, r0, r2
      50:	0a 04 00 10 	add	r10, r0, r1
      54:	41 7d 00 2d 	srai	r1, r10, 31
      58:	42 05 00 10 	add	r2, r10, r1
      5c:	41 04 00 34 	xor	r1, r2, r1
      60:	22 7d 00 2d 	srai	r2, r9, 31
      64:	23 09 00 10 	add	r3, r9, r2
      68:	62 08 00 34 	xor	r2, r3, r2
      6c:	00 94 ff 64 	jsub	-27
      70:	22 29 00 32 	or	r2, r9, r10
      74:	03 fc ff 11 	addi	r3, r0, -1
      78:	63 08 00 b2 	slt	r3, r3, r2
      7c:	02 04 00 12 	sub	r2, r0, r1
      80:	22 0c 00 40 	movn	r2, r1, r3
      84:	23 29 00 30 	and	r3, r9, r10
      88:	63 00 00 b3 	slti	r3, r3, 0
      8c:	22 0c 00 40 	movn	r2, r1, r3
      90:	01 08 00 10 	add	r1, r0, r2
      94:	ea 03 00 d4 	llwi	r10, sp[0]
      98:	e9 07 00 d4 	llwi	r9, sp[1]
      9c:	ff 0b 00 11 	addi	sp, sp, 2
      a0:	00 00 00 92 	ret

div_int:
      a4:	29 00 00 a8 	lp	r9, 1
      a8:	42 00 00 a8 	lp	r2, 2
      ac:	03 00 00 a8 	lp	r3, 0
      b0:	04 00 00 a0 	lid	r4, 0
      b4:	05 00 00 a1 	wgoff	r5, 0
      b8:	aa 10 00 10 	add	r10, r5, r4
      bc:	41 0d 00 74 	lw	r1, r3[r10]
      c0:	00 80 ff 64 	jsub	-32
      c4:	41 25 00 7c 	sw	r1, r9[r10]
      c8:	00 00 00 92 	ret

__divsf3:
      cc:	ff d3 ff 11 	addi	sp, sp, -12
      d0:	e9 2f 00 dc 	lswi	r9, sp[11]
      d4:	ea 2b 00 dc 	lswi	r10, sp[10]
      d8:	eb 27 00 dc 	lswi	r11, sp[9]
      dc:	ec 23 00 dc 	lswi	r12, sp[8]
      e0:	ed 1f 00 dc 	lswi	r13, sp[7]
      e4:	ee 1b 00 dc 	lswi	r14, sp[6]
      e8:	ef 17 00 dc 	lswi	r15, sp[5]
      ec:	f0 13 00 dc 	lswi	r16, sp[4]
      f0:	f1 0f 00 dc 	lswi	r17, sp[3]
      f4:	f2 0b 00 dc 	lswi	r18, sp[2]
      f8:	f3 07 00 dc 	lswi	r19, sp[1]
      fc:	03 04 00 10 	add	r3, r0, r1
     100:	41 0c 00 34 	xor	r1, r2, r3
     104:	0c 00 00 19 	li	r12, 0
     108:	4c 00 00 1d 	lui	r12, 32768
     10c:	21 30 00 30 	and	r1, r1, r12
     110:	64 5c 00 29 	srli	r4, r3, 23
     114:	85 fc 03 31 	andi	r5, r4, 255
     118:	a4 fc ff 11 	addi	r4, r5, -1
     11c:	06 f4 03 11 	addi	r6, r0, 253
     120:	c9 10 00 b6 	sltu	r9, r6, r4
     124:	06 00 00 11 	addi	r6, r0, 0
     128:	64 fc ff 19 	li	r4, 65535
     12c:	04 fc 01 1d 	lui	r4, 127
     130:	68 10 00 30 	and	r8, r3, r4
     134:	4a 10 00 30 	and	r10, r2, r4
     138:	47 5c 00 29 	srli	r7, r2, 23
     13c:	e7 fc 03 31 	andi	r7, r7, 255
     140:	09 14 00 63 	bne	r9, r0, 5
     144:	e9 fc ff 11 	addi	r9, r7, -1
     148:	0b f8 03 11 	addi	r11, r0, 254
     14c:	2b 2d 00 b6 	sltu	r11, r9, r11
     150:	09 18 00 10 	add	r9, r0, r6
     154:	0b c0 01 63 	bne	r11, r0, 112

LBB3_2:
     158:	6b fc ff 19 	li	r11, 65535
     15c:	2b fc ff 1d 	lui	r11, 32767
     160:	69 2c 00 30 	and	r9, r3, r11
     164:	0d 04 00 19 	li	r13, 1
     168:	2d 00 fe 1d 	lui	r13, 32640
     16c:	2e 35 00 b6 	sltu	r14, r9, r13
     170:	0e 10 00 63 	bne	r14, r0, 4
     174:	01 00 00 19 	li	r1, 0
     178:	01 00 01 1d 	lui	r1, 64
     17c:	61 04 00 32 	or	r1, r3, r1
     180:	00 9c 04 62 	beq	r0, r0, 295

LBB3_4:
     184:	4b 2c 00 30 	and	r11, r2, r11
     188:	6d 35 00 b6 	sltu	r13, r11, r13
     18c:	0d 10 00 63 	bne	r13, r0, 4
     190:	01 00 00 19 	li	r1, 0
     194:	01 00 01 1d 	lui	r1, 64
     198:	41 04 00 32 	or	r1, r2, r1
     19c:	00 80 04 62 	beq	r0, r0, 288

LBB3_6:
     1a0:	0d 00 00 19 	li	r13, 0
     1a4:	2d 00 fe 1d 	lui	r13, 32640
     1a8:	a9 19 00 63 	bne	r9, r13, 6
     1ac:	01 00 00 19 	li	r1, 0
     1b0:	21 00 ff 1d 	lui	r1, 32704
     1b4:	ab 69 04 62 	beq	r11, r13, 282
     1b8:	41 30 00 30 	and	r1, r2, r12
     1bc:	21 0c 00 34 	xor	r1, r1, r3
     1c0:	00 5c 04 62 	beq	r0, r0, 279

LBB3_9:
     1c4:	ab 05 00 63 	bne	r11, r13, 1
     1c8:	00 54 04 62 	beq	r0, r0, 277

LBB3_11:
     1cc:	09 04 00 63 	bne	r9, r0, 1
     1d0:	00 18 04 62 	beq	r0, r0, 262

LBB3_13:
     1d4:	0b 04 00 63 	bne	r11, r0, 1
     1d8:	00 24 04 62 	beq	r0, r0, 265

LBB3_15:
     1dc:	82 24 00 b6 	sltu	r2, r4, r9
     1e0:	09 00 00 11 	addi	r9, r0, 0
     1e4:	02 94 00 63 	bne	r2, r0, 37
     1e8:	02 05 00 29 	srli	r2, r8, 1
     1ec:	02 09 00 32 	or	r2, r8, r2
     1f0:	43 08 00 29 	srli	r3, r2, 2
     1f4:	42 0c 00 32 	or	r2, r2, r3
     1f8:	43 10 00 29 	srli	r3, r2, 4
     1fc:	42 0c 00 32 	or	r2, r2, r3
     200:	43 20 00 29 	srli	r3, r2, 8
     204:	42 0c 00 32 	or	r2, r2, r3
     208:	43 40 00 29 	srli	r3, r2, 16
     20c:	42 0c 00 32 	or	r2, r2, r3
     210:	03 fc ff 11 	addi	r3, r0, -1
     214:	42 0c 00 34 	xor	r2, r2, r3
     218:	23 54 55 19 	li	r3, 21845
     21c:	23 54 55 1d 	lui	r3, 21845
     220:	49 04 00 29 	srli	r9, r2, 1
     224:	23 0d 00 30 	and	r3, r9, r3
     228:	42 0c 00 12 	sub	r2, r2, r3
     22c:	03 cc cc 19 	li	r3, 13107
     230:	03 cc cc 1d 	lui	r3, 13107
     234:	49 0c 00 30 	and	r9, r2, r3
     238:	42 08 00 29 	srli	r2, r2, 2
     23c:	42 0c 00 30 	and	r2, r2, r3
     240:	22 09 00 10 	add	r2, r9, r2
     244:	43 10 00 29 	srli	r3, r2, 4
     248:	42 0c 00 10 	add	r2, r2, r3
     24c:	03 3c 3c 19 	li	r3, 3855
     250:	03 3c 3c 1d 	lui	r3, 3855
     254:	42 0c 00 30 	and	r2, r2, r3
     258:	03 04 04 19 	li	r3, 257
     25c:	03 04 04 1d 	lui	r3, 257
     260:	42 0c 00 51 	mul	r2, r2, r3
     264:	42 60 00 29 	srli	r2, r2, 24
     268:	03 24 00 11 	addi	r3, r0, 9
     26c:	69 08 00 12 	sub	r9, r3, r2
     270:	42 60 00 11 	addi	r2, r2, 24
     274:	42 7c 00 31 	andi	r2, r2, 31
     278:	08 09 00 20 	sll	r8, r8, r2

LBB3_17:
     27c:	82 2c 00 b6 	sltu	r2, r4, r11
     280:	02 94 00 63 	bne	r2, r0, 37
     284:	42 05 00 29 	srli	r2, r10, 1
     288:	42 09 00 32 	or	r2, r10, r2
     28c:	43 08 00 29 	srli	r3, r2, 2
     290:	42 0c 00 32 	or	r2, r2, r3
     294:	43 10 00 29 	srli	r3, r2, 4
     298:	42 0c 00 32 	or	r2, r2, r3
     29c:	43 20 00 29 	srli	r3, r2, 8
     2a0:	42 0c 00 32 	or	r2, r2, r3
     2a4:	43 40 00 29 	srli	r3, r2, 16
     2a8:	42 0c 00 32 	or	r2, r2, r3
     2ac:	03 fc ff 11 	addi	r3, r0, -1
     2b0:	42 0c 00 34 	xor	r2, r2, r3
     2b4:	23 54 55 19 	li	r3, 21845
     2b8:	23 54 55 1d 	lui	r3, 21845
     2bc:	4b 04 00 29 	srli	r11, r2, 1
     2c0:	63 0d 00 30 	and	r3, r11, r3
     2c4:	42 0c 00 12 	sub	r2, r2, r3
     2c8:	03 cc cc 19 	li	r3, 13107
     2cc:	03 cc cc 1d 	lui	r3, 13107
     2d0:	4b 0c 00 30 	and	r11, r2, r3
     2d4:	42 08 00 29 	srli	r2, r2, 2
     2d8:	42 0c 00 30 	and	r2, r2, r3
     2dc:	62 09 00 10 	add	r2, r11, r2
     2e0:	43 10 00 29 	srli	r3, r2, 4
     2e4:	42 0c 00 10 	add	r2, r2, r3
     2e8:	03 3c 3c 19 	li	r3, 3855
     2ec:	03 3c 3c 1d 	lui	r3, 3855
     2f0:	42 0c 00 30 	and	r2, r2, r3
     2f4:	03 04 04 19 	li	r3, 257
     2f8:	03 04 04 1d 	lui	r3, 257
     2fc:	42 0c 00 51 	mul	r2, r2, r3
     300:	42 60 00 29 	srli	r2, r2, 24
     304:	43 60 00 11 	addi	r3, r2, 24
     308:	63 7c 00 31 	andi	r3, r3, 31
     30c:	4a 0d 00 20 	sll	r10, r10, r3
     310:	22 09 00 10 	add	r2, r9, r2
     314:	49 dc ff 11 	addi	r9, r2, -9

LBB3_19:
     318:	0b 00 00 19 	li	r11, 0
     31c:	0b 00 02 1d 	lui	r11, 128
     320:	42 2d 00 32 	or	r2, r10, r11
     324:	4c 20 00 21 	slli	r12, r2, 8
     328:	63 cc cc 19 	li	r3, 62259
     32c:	23 10 d4 1d 	lui	r3, 29956
     330:	6e 30 00 12 	sub	r14, r3, r12
     334:	63 cc fc 19 	li	r3, 65331
     338:	03 00 00 1d 	lui	r3, 0
     33c:	cf 0d 00 30 	and	r15, r14, r3
     340:	4a 20 00 29 	srli	r10, r2, 8
     344:	63 fc ff 19 	li	r3, 65535
     348:	03 00 00 1d 	lui	r3, 0
     34c:	4d 0d 00 30 	and	r13, r10, r3
     350:	6a 00 fc 19 	li	r10, 65280
     354:	0a 00 00 1d 	lui	r10, 0
     358:	8c 29 00 30 	and	r12, r12, r10
     35c:	ce 41 00 29 	srli	r14, r14, 16
     360:	d0 31 00 51 	mul	r16, r14, r12
     364:	11 42 00 29 	srli	r17, r16, 16
     368:	d1 35 00 58 	macc	r17, r14, r13
     36c:	f2 35 00 51 	mul	r18, r15, r13
     370:	53 42 00 29 	srli	r19, r18, 16
     374:	71 46 00 10 	add	r17, r19, r17
     378:	10 2a 00 30 	and	r16, r16, r10
     37c:	f3 31 00 51 	mul	r19, r15, r12
     380:	73 42 00 29 	srli	r19, r19, 16
     384:	70 42 00 10 	add	r16, r19, r16
     388:	52 0e 00 30 	and	r18, r18, r3
     38c:	10 4a 00 10 	add	r16, r16, r18
     390:	10 42 00 29 	srli	r16, r16, 16
     394:	30 42 00 10 	add	r16, r17, r16
     398:	10 40 00 12 	sub	r16, r0, r16
     39c:	11 0e 00 30 	and	r17, r16, r3
     3a0:	32 3e 00 51 	mul	r18, r17, r15
     3a4:	52 42 00 29 	srli	r18, r18, 16
     3a8:	32 3a 00 58 	macc	r18, r17, r14
     3ac:	10 42 00 29 	srli	r16, r16, 16
     3b0:	51 42 00 29 	srli	r17, r18, 16
     3b4:	11 3a 00 58 	macc	r17, r16, r14
     3b8:	4e 0e 00 30 	and	r14, r18, r3
     3bc:	12 3e 00 58 	macc	r18, r16, r15
     3c0:	0e 3e 00 58 	macc	r14, r16, r15
     3c4:	ce 41 00 29 	srli	r14, r14, 16
     3c8:	2e 3a 00 10 	add	r14, r17, r14
     3cc:	4f 42 00 21 	slli	r15, r18, 16
     3d0:	ef 7d 00 29 	srli	r15, r15, 31
     3d4:	d0 05 00 21 	slli	r16, r14, 1
     3d8:	ef 41 00 32 	or	r15, r15, r16
     3dc:	ce 3d 00 29 	srli	r14, r14, 15
     3e0:	ce 0d 00 30 	and	r14, r14, r3
     3e4:	d0 31 00 51 	mul	r16, r14, r12
     3e8:	11 42 00 29 	srli	r17, r16, 16
     3ec:	d1 35 00 58 	macc	r17, r14, r13
     3f0:	ef 0d 00 30 	and	r15, r15, r3
     3f4:	f2 35 00 51 	mul	r18, r15, r13
     3f8:	53 42 00 29 	srli	r19, r18, 16
     3fc:	31 4e 00 10 	add	r17, r17, r19
     400:	10 2a 00 30 	and	r16, r16, r10
     404:	f3 31 00 51 	mul	r19, r15, r12
     408:	73 42 00 29 	srli	r19, r19, 16
     40c:	70 42 00 10 	add	r16, r19, r16
     410:	52 0e 00 30 	and	r18, r18, r3
     414:	10 4a 00 10 	add	r16, r16, r18
     418:	10 42 00 29 	srli	r16, r16, 16
     41c:	30 42 00 10 	add	r16, r17, r16
     420:	10 40 00 12 	sub	r16, r0, r16
     424:	11 0e 00 30 	and	r17, r16, r3
     428:	32 3e 00 51 	mul	r18, r17, r15
     42c:	52 42 00 29 	srli	r18, r18, 16
     430:	32 3a 00 58 	macc	r18, r17, r14
     434:	10 42 00 29 	srli	r16, r16, 16
     438:	51 42 00 29 	srli	r17, r18, 16
     43c:	11 3a 00 58 	macc	r17, r16, r14
     440:	4e 0e 00 30 	and	r14, r18, r3
     444:	12 3e 00 58 	macc	r18, r16, r15
     448:	0e 3e 00 58 	macc	r14, r16, r15
     44c:	ce 41 00 29 	srli	r14, r14, 16
     450:	2e 3a 00 10 	add	r14, r17, r14
     454:	4f 42 00 21 	slli	r15, r18, 16
     458:	ef 7d 00 29 	srli	r15, r15, 31
     45c:	d0 05 00 21 	slli	r16, r14, 1
     460:	ef 41 00 32 	or	r15, r15, r16
     464:	ce 3d 00 29 	srli	r14, r14, 15
     468:	ce 0d 00 30 	and	r14, r14, r3
     46c:	d0 31 00 51 	mul	r16, r14, r12
     470:	11 42 00 29 	srli	r17, r16, 16
     474:	d1 35 00 58 	macc	r17, r14, r13
     478:	ef 0d 00 30 	and	r15, r15, r3
     47c:	ed 35 00 51 	mul	r13, r15, r13
     480:	b2 41 00 29 	srli	r18, r13, 16
     484:	31 4a 00 10 	add	r17, r17, r18
     488:	0a 2a 00 30 	and	r10, r16, r10
     48c:	ec 31 00 51 	mul	r12, r15, r12
     490:	8c 41 00 29 	srli	r12, r12, 16
     494:	8a 29 00 10 	add	r10, r12, r10
     498:	ac 0d 00 30 	and	r12, r13, r3
     49c:	4a 31 00 10 	add	r10, r10, r12
     4a0:	4a 41 00 29 	srli	r10, r10, 16
     4a4:	2a 2a 00 10 	add	r10, r17, r10
     4a8:	0a 28 00 12 	sub	r10, r0, r10
     4ac:	4c 0d 00 30 	and	r12, r10, r3
     4b0:	8d 3d 00 51 	mul	r13, r12, r15
     4b4:	ad 41 00 29 	srli	r13, r13, 16
     4b8:	8d 39 00 58 	macc	r13, r12, r14
     4bc:	4a 41 00 29 	srli	r10, r10, 16
     4c0:	ac 41 00 29 	srli	r12, r13, 16
     4c4:	4c 39 00 58 	macc	r12, r10, r14
     4c8:	ae 0d 00 30 	and	r14, r13, r3
     4cc:	4d 3d 00 58 	macc	r13, r10, r15
     4d0:	4e 3d 00 58 	macc	r14, r10, r15
     4d4:	ca 41 00 29 	srli	r10, r14, 16
     4d8:	8a 29 00 10 	add	r10, r12, r10
     4dc:	4a 05 00 21 	slli	r10, r10, 1
     4e0:	ac 41 00 21 	slli	r12, r13, 16
     4e4:	8c 7d 00 29 	srli	r12, r12, 31
     4e8:	8c 29 00 32 	or	r12, r12, r10
     4ec:	0a 2d 00 32 	or	r10, r8, r11
     4f0:	4b 3d 00 29 	srli	r11, r10, 15
     4f4:	6b 0d 00 30 	and	r11, r11, r3
     4f8:	08 05 00 21 	slli	r8, r8, 1
     4fc:	6d f8 ff 19 	li	r13, 65534
     500:	0d 00 00 1d 	lui	r13, 0
     504:	08 35 00 30 	and	r8, r8, r13
     508:	8c f9 ff 11 	addi	r12, r12, -2
     50c:	8e 41 00 29 	srli	r14, r12, 16
     510:	cf 21 00 51 	mul	r15, r14, r8
     514:	f0 41 00 29 	srli	r16, r15, 16
     518:	d0 2d 00 58 	macc	r16, r14, r11
     51c:	8c 0d 00 30 	and	r12, r12, r3
     520:	8b 2d 00 51 	mul	r11, r12, r11
     524:	6e 41 00 29 	srli	r14, r11, 16
     528:	0e 3a 00 10 	add	r14, r16, r14
     52c:	ed 35 00 30 	and	r13, r15, r13
     530:	88 21 00 51 	mul	r8, r12, r8
     534:	08 41 00 29 	srli	r8, r8, 16
     538:	08 35 00 10 	add	r8, r8, r13
     53c:	63 0d 00 30 	and	r3, r11, r3
     540:	03 0d 00 10 	add	r3, r8, r3
     544:	63 40 00 29 	srli	r3, r3, 16
     548:	cb 0d 00 10 	add	r11, r14, r3
     54c:	03 00 00 19 	li	r3, 0
     550:	03 00 04 1d 	lui	r3, 256
     554:	68 0d 00 b6 	sltu	r8, r11, r3
     558:	03 fc ff 11 	addi	r3, r0, -1
     55c:	66 20 00 40 	movn	r6, r3, r8
     560:	a3 1c 00 12 	sub	r3, r5, r7
     564:	63 24 00 10 	add	r3, r3, r9
     568:	63 18 00 10 	add	r3, r3, r6
     56c:	65 fc 01 11 	addi	r5, r3, 127
     570:	06 fc 03 11 	addi	r6, r0, 255
     574:	a6 18 00 b2 	slt	r6, r5, r6
     578:	06 10 00 63 	bne	r6, r0, 4
     57c:	02 00 00 19 	li	r2, 0
     580:	22 00 fe 1d 	lui	r2, 32640
     584:	21 08 00 32 	or	r1, r1, r2
     588:	00 94 00 62 	beq	r0, r0, 37

LBB3_21:
     58c:	66 fc ff 19 	li	r6, 65535
     590:	06 fc 03 1d 	lui	r6, 255
     594:	c6 2c 00 b6 	sltu	r6, r6, r11
     598:	66 19 00 28 	srl	r6, r11, r6
     59c:	07 5c 00 11 	addi	r7, r0, 23
     5a0:	09 60 00 11 	addi	r9, r0, 24
     5a4:	27 21 00 40 	movn	r7, r9, r8
     5a8:	c8 08 00 51 	mul	r8, r6, r2
     5ac:	47 1d 00 20 	sll	r7, r10, r7
     5b0:	e7 20 00 12 	sub	r7, r7, r8
     5b4:	08 14 00 b2 	slt	r8, r0, r5
     5b8:	e7 04 00 21 	slli	r7, r7, 1
     5bc:	08 48 00 63 	bne	r8, r0, 18
     5c0:	04 08 fe 11 	addi	r4, r0, -126
     5c4:	83 0c 00 12 	sub	r3, r4, r3
     5c8:	64 7c 00 b7 	sltiu	r4, r3, 31
     5cc:	05 7c 00 11 	addi	r5, r0, 31
     5d0:	65 10 00 40 	movn	r5, r3, r4
     5d4:	42 1c 00 b6 	sltu	r2, r2, r7
     5d8:	42 18 00 10 	add	r2, r2, r6
     5dc:	a3 7c 00 31 	andi	r3, r5, 31
     5e0:	42 0c 00 28 	srl	r2, r2, r3
     5e4:	41 04 00 32 	or	r1, r2, r1
     5e8:	00 34 00 62 	beq	r0, r0, 13

LBB3_12:
     5ec:	02 00 00 19 	li	r2, 0
     5f0:	22 00 ff 1d 	lui	r2, 32704
     5f4:	22 2c 00 40 	movn	r2, r1, r11
     5f8:	01 08 00 10 	add	r1, r0, r2
     5fc:	00 20 00 62 	beq	r0, r0, 8

LBB3_14:
     600:	21 34 00 32 	or	r1, r1, r13
     604:	00 18 00 62 	beq	r0, r0, 6

LBB3_23:
     608:	42 1c 00 b6 	sltu	r2, r2, r7
     60c:	c3 10 00 30 	and	r3, r6, r4
     610:	a4 5c 00 21 	slli	r4, r5, 23
     614:	63 10 00 32 	or	r3, r3, r4
     618:	42 0c 00 10 	add	r2, r2, r3
     61c:	41 04 00 32 	or	r1, r2, r1

LBB3_24:
     620:	f3 07 00 d4 	llwi	r19, sp[1]
     624:	f2 0b 00 d4 	llwi	r18, sp[2]
     628:	f1 0f 00 d4 	llwi	r17, sp[3]
     62c:	f0 13 00 d4 	llwi	r16, sp[4]
     630:	ef 17 00 d4 	llwi	r15, sp[5]
     634:	ee 1b 00 d4 	llwi	r14, sp[6]
     638:	ed 1f 00 d4 	llwi	r13, sp[7]
     63c:	ec 23 00 d4 	llwi	r12, sp[8]
     640:	eb 27 00 d4 	llwi	r11, sp[9]
     644:	ea 2b 00 d4 	llwi	r10, sp[10]
     648:	e9 2f 00 d4 	llwi	r9, sp[11]
     64c:	ff 33 00 11 	addi	sp, sp, 12
     650:	00 00 00 92 	ret

div_float:
     654:	42 00 00 a8 	lp	r2, 2
     658:	23 00 00 a8 	lp	r3, 1
     65c:	04 00 00 a8 	lp	r4, 0
     660:	05 00 00 a0 	lid	r5, 0
     664:	06 00 00 a1 	wgoff	r6, 0
     668:	c1 14 00 10 	add	r1, r6, r5
     66c:	24 10 00 74 	lw	r4, r4[r1]
     670:	83 0c 00 c2 	fdiv	r3, r4, r3
     674:	23 08 00 7c 	sw	r3, r2[r1]
     678:	00 00 00 92 	ret
