
compiler_outputs/sum.bin:	file format ELF32-fgpu

Disassembly of section .text:
sum_atomic_word:
       0:	43 00 00 a8 	lp	r3, 2
       4:	22 00 00 a8 	lp	r2, 1
       8:	04 00 00 a8 	lp	r4, 0
       c:	05 00 00 a0 	lid	r5, 0
      10:	06 00 00 a1 	wgoff	r6, 0
      14:	c1 14 00 10 	add	r1, r6, r5
      18:	21 08 00 21 	slli	r1, r1, 2
      1c:	85 04 00 10 	add	r5, r4, r1
      20:	04 00 00 11 	addi	r4, r0, 0
      24:	06 00 00 a2 	size	r6, 0
      28:	c1 08 00 21 	slli	r1, r6, 2

LBB0_1:
      2c:	a6 04 00 10 	add	r6, r5, r1
      30:	05 14 00 74 	lw	r5, r5[r0]
      34:	a4 10 00 10 	add	r4, r5, r4
      38:	63 fc ff 11 	addi	r3, r3, -1
      3c:	05 18 00 10 	add	r5, r0, r6
      40:	03 e8 ff 63 	bne	r3, r0, -6
      44:	44 00 00 81 	aadd	r4, r2, r0
      48:	00 00 00 92 	ret

sum_half_atomic:
      4c:	43 00 00 a8 	lp	r3, 2
      50:	22 00 00 a8 	lp	r2, 1
      54:	04 00 00 a8 	lp	r4, 0
      58:	05 00 00 a0 	lid	r5, 0
      5c:	06 00 00 a1 	wgoff	r6, 0
      60:	c1 14 00 10 	add	r1, r6, r5
      64:	21 04 00 21 	slli	r1, r1, 1
      68:	85 04 00 10 	add	r5, r4, r1
      6c:	04 00 00 11 	addi	r4, r0, 0
      70:	06 00 00 a2 	size	r6, 0
      74:	c1 04 00 21 	slli	r1, r6, 1

LBB1_1:
      78:	a6 04 00 10 	add	r6, r5, r1
      7c:	07 14 00 74 	lw	r7, r5[r0]
      80:	a5 78 00 35 	xori	r5, r5, 30
      84:	a5 0c 00 21 	slli	r5, r5, 3
      88:	e5 14 00 20 	sll	r5, r7, r5
      8c:	a5 40 00 2d 	srai	r5, r5, 16
      90:	a4 10 00 10 	add	r4, r5, r4
      94:	63 fc ff 11 	addi	r3, r3, -1
      98:	05 18 00 10 	add	r5, r0, r6
      9c:	03 d8 ff 63 	bne	r3, r0, -10
      a0:	44 00 00 81 	aadd	r4, r2, r0
      a4:	00 00 00 92 	ret

sum_half_improved_atomic:
      a8:	03 00 00 11 	addi	r3, r0, 0
      ac:	22 00 00 a8 	lp	r2, 1
      b0:	47 00 00 a8 	lp	r7, 2
      b4:	05 00 00 a0 	lid	r5, 0
      b8:	06 00 00 a1 	wgoff	r6, 0
      bc:	04 00 00 a2 	size	r4, 0
      c0:	e1 04 00 29 	srli	r1, r7, 1
      c4:	01 40 00 62 	beq	r1, r0, 16
      c8:	03 00 00 a8 	lp	r3, 0
      cc:	c5 14 00 10 	add	r5, r6, r5
      d0:	a5 08 00 21 	slli	r5, r5, 2
      d4:	65 14 00 10 	add	r5, r3, r5
      d8:	03 00 00 11 	addi	r3, r0, 0
      dc:	84 08 00 21 	slli	r4, r4, 2

LBB2_2:
      e0:	a6 10 00 10 	add	r6, r5, r4
      e4:	05 14 00 74 	lw	r5, r5[r0]
      e8:	a7 40 00 21 	slli	r7, r5, 16
      ec:	e7 40 00 2d 	srai	r7, r7, 16
      f0:	e3 0c 00 10 	add	r3, r7, r3
      f4:	a5 40 00 2d 	srai	r5, r5, 16
      f8:	63 14 00 10 	add	r3, r3, r5
      fc:	21 fc ff 11 	addi	r1, r1, -1
     100:	05 18 00 10 	add	r5, r0, r6
     104:	01 d8 ff 63 	bne	r1, r0, -10

LBB2_3:
     108:	43 00 00 81 	aadd	r3, r2, r0
     10c:	00 00 00 92 	ret

sum_byte_atomic:
     110:	43 00 00 a8 	lp	r3, 2
     114:	22 00 00 a8 	lp	r2, 1
     118:	04 00 00 a8 	lp	r4, 0
     11c:	05 00 00 a0 	lid	r5, 0
     120:	06 00 00 a1 	wgoff	r6, 0
     124:	a1 18 00 10 	add	r1, r5, r6
     128:	86 04 00 10 	add	r6, r4, r1
     12c:	04 00 00 11 	addi	r4, r0, 0
     130:	05 00 00 a2 	size	r5, 0

LBB3_1:
     134:	c1 14 00 10 	add	r1, r6, r5
     138:	07 18 00 74 	lw	r7, r6[r0]
     13c:	c6 7c 00 35 	xori	r6, r6, 31
     140:	c6 0c 00 21 	slli	r6, r6, 3
     144:	e6 18 00 20 	sll	r6, r7, r6
     148:	c6 60 00 2d 	srai	r6, r6, 24
     14c:	c4 10 00 10 	add	r4, r6, r4
     150:	63 fc ff 11 	addi	r3, r3, -1
     154:	06 04 00 10 	add	r6, r0, r1
     158:	03 d8 ff 63 	bne	r3, r0, -10
     15c:	44 00 00 81 	aadd	r4, r2, r0
     160:	00 00 00 92 	ret

sum_byte_improved_atomic:
     164:	03 00 00 11 	addi	r3, r0, 0
     168:	22 00 00 a8 	lp	r2, 1
     16c:	47 00 00 a8 	lp	r7, 2
     170:	05 00 00 a0 	lid	r5, 0
     174:	06 00 00 a1 	wgoff	r6, 0
     178:	04 00 00 a2 	size	r4, 0
     17c:	e1 08 00 29 	srli	r1, r7, 2
     180:	01 58 00 62 	beq	r1, r0, 22
     184:	03 00 00 a8 	lp	r3, 0
     188:	c5 14 00 10 	add	r5, r6, r5
     18c:	a5 08 00 21 	slli	r5, r5, 2
     190:	65 14 00 10 	add	r5, r3, r5
     194:	03 00 00 11 	addi	r3, r0, 0
     198:	84 08 00 21 	slli	r4, r4, 2

LBB4_2:
     19c:	a6 10 00 10 	add	r6, r5, r4
     1a0:	05 14 00 74 	lw	r5, r5[r0]
     1a4:	a7 60 00 21 	slli	r7, r5, 24
     1a8:	e7 60 00 2d 	srai	r7, r7, 24
     1ac:	e3 0c 00 10 	add	r3, r7, r3
     1b0:	a7 40 00 21 	slli	r7, r5, 16
     1b4:	e7 60 00 2d 	srai	r7, r7, 24
     1b8:	63 1c 00 10 	add	r3, r3, r7
     1bc:	a7 20 00 21 	slli	r7, r5, 8
     1c0:	e7 60 00 2d 	srai	r7, r7, 24
     1c4:	63 1c 00 10 	add	r3, r3, r7
     1c8:	a5 60 00 2d 	srai	r5, r5, 24
     1cc:	63 14 00 10 	add	r3, r3, r5
     1d0:	21 fc ff 11 	addi	r1, r1, -1
     1d4:	05 18 00 10 	add	r5, r0, r6
     1d8:	01 c0 ff 63 	bne	r1, r0, -16

LBB4_3:
     1dc:	43 00 00 81 	aadd	r3, r2, r0
     1e0:	00 00 00 92 	ret

sum:
     1e4:	43 00 00 a8 	lp	r3, 2
     1e8:	22 00 00 a8 	lp	r2, 1
     1ec:	05 00 00 a8 	lp	r5, 0
     1f0:	04 00 00 a0 	lid	r4, 0
     1f4:	06 00 00 a1 	wgoff	r6, 0
     1f8:	c4 10 00 10 	add	r4, r6, r4
     1fc:	81 08 00 21 	slli	r1, r4, 2
     200:	a6 04 00 10 	add	r6, r5, r1
     204:	05 00 00 11 	addi	r5, r0, 0
     208:	07 00 00 a2 	size	r7, 0
     20c:	e1 08 00 21 	slli	r1, r7, 2

LBB5_1:
     210:	c7 04 00 10 	add	r7, r6, r1
     214:	06 18 00 74 	lw	r6, r6[r0]
     218:	c5 14 00 10 	add	r5, r6, r5
     21c:	63 fc ff 11 	addi	r3, r3, -1
     220:	06 1c 00 10 	add	r6, r0, r7
     224:	03 e8 ff 63 	bne	r3, r0, -6
     228:	85 08 00 7c 	sw	r5, r2[r4]
     22c:	00 00 00 92 	ret

sum_half:
     230:	43 00 00 a8 	lp	r3, 2
     234:	22 00 00 a8 	lp	r2, 1
     238:	05 00 00 a8 	lp	r5, 0
     23c:	04 00 00 a0 	lid	r4, 0
     240:	06 00 00 a1 	wgoff	r6, 0
     244:	c4 10 00 10 	add	r4, r6, r4
     248:	81 04 00 21 	slli	r1, r4, 1
     24c:	a6 04 00 10 	add	r6, r5, r1
     250:	05 00 00 11 	addi	r5, r0, 0
     254:	07 00 00 a2 	size	r7, 0
     258:	e1 04 00 21 	slli	r1, r7, 1

LBB6_1:
     25c:	c7 04 00 10 	add	r7, r6, r1
     260:	08 18 00 74 	lw	r8, r6[r0]
     264:	c6 78 00 35 	xori	r6, r6, 30
     268:	c6 0c 00 21 	slli	r6, r6, 3
     26c:	06 19 00 20 	sll	r6, r8, r6
     270:	c6 40 00 2d 	srai	r6, r6, 16
     274:	c5 14 00 10 	add	r5, r6, r5
     278:	63 fc ff 11 	addi	r3, r3, -1
     27c:	06 1c 00 10 	add	r6, r0, r7
     280:	03 d8 ff 63 	bne	r3, r0, -10
     284:	85 08 00 7a 	sh	r5, r2[r4]
     288:	00 00 00 92 	ret

sum_half_improved:
     28c:	04 00 00 11 	addi	r4, r0, 0
     290:	22 00 00 a8 	lp	r2, 1
     294:	46 00 00 a8 	lp	r6, 2
     298:	03 00 00 a0 	lid	r3, 0
     29c:	05 00 00 a1 	wgoff	r5, 0
     2a0:	a3 0c 00 10 	add	r3, r5, r3
     2a4:	05 00 00 a2 	size	r5, 0
     2a8:	c1 04 00 29 	srli	r1, r6, 1
     2ac:	01 3c 00 62 	beq	r1, r0, 15
     2b0:	04 00 00 a8 	lp	r4, 0
     2b4:	66 08 00 21 	slli	r6, r3, 2
     2b8:	86 18 00 10 	add	r6, r4, r6
     2bc:	04 00 00 11 	addi	r4, r0, 0
     2c0:	a5 08 00 21 	slli	r5, r5, 2

LBB7_2:
     2c4:	c7 14 00 10 	add	r7, r6, r5
     2c8:	06 18 00 74 	lw	r6, r6[r0]
     2cc:	c8 40 00 21 	slli	r8, r6, 16
     2d0:	08 41 00 2d 	srai	r8, r8, 16
     2d4:	04 11 00 10 	add	r4, r8, r4
     2d8:	c6 40 00 2d 	srai	r6, r6, 16
     2dc:	84 18 00 10 	add	r4, r4, r6
     2e0:	21 fc ff 11 	addi	r1, r1, -1
     2e4:	06 1c 00 10 	add	r6, r0, r7
     2e8:	01 d8 ff 63 	bne	r1, r0, -10

LBB7_3:
     2ec:	64 08 00 7a 	sh	r4, r2[r3]
     2f0:	00 00 00 92 	ret

sum_byte:
     2f4:	43 00 00 a8 	lp	r3, 2
     2f8:	22 00 00 a8 	lp	r2, 1
     2fc:	05 00 00 a8 	lp	r5, 0
     300:	04 00 00 a0 	lid	r4, 0
     304:	06 00 00 a1 	wgoff	r6, 0
     308:	84 18 00 10 	add	r4, r4, r6
     30c:	a7 10 00 10 	add	r7, r5, r4
     310:	05 00 00 11 	addi	r5, r0, 0
     314:	06 00 00 a2 	size	r6, 0

LBB8_1:
     318:	e1 18 00 10 	add	r1, r7, r6
     31c:	08 1c 00 74 	lw	r8, r7[r0]
     320:	e7 7c 00 35 	xori	r7, r7, 31
     324:	e7 0c 00 21 	slli	r7, r7, 3
     328:	07 1d 00 20 	sll	r7, r8, r7
     32c:	e7 60 00 2d 	srai	r7, r7, 24
     330:	e5 14 00 10 	add	r5, r7, r5
     334:	63 fc ff 11 	addi	r3, r3, -1
     338:	07 04 00 10 	add	r7, r0, r1
     33c:	03 d8 ff 63 	bne	r3, r0, -10
     340:	85 08 00 79 	sb	r5, r2[r4]
     344:	00 00 00 92 	ret

sum_byte_improved:
     348:	04 00 00 11 	addi	r4, r0, 0
     34c:	22 00 00 a8 	lp	r2, 1
     350:	46 00 00 a8 	lp	r6, 2
     354:	03 00 00 a0 	lid	r3, 0
     358:	05 00 00 a1 	wgoff	r5, 0
     35c:	a3 0c 00 10 	add	r3, r5, r3
     360:	05 00 00 a2 	size	r5, 0
     364:	c1 08 00 29 	srli	r1, r6, 2
     368:	01 54 00 62 	beq	r1, r0, 21
     36c:	04 00 00 a8 	lp	r4, 0
     370:	66 08 00 21 	slli	r6, r3, 2
     374:	86 18 00 10 	add	r6, r4, r6
     378:	04 00 00 11 	addi	r4, r0, 0
     37c:	a5 08 00 21 	slli	r5, r5, 2

LBB9_2:
     380:	c7 14 00 10 	add	r7, r6, r5
     384:	06 18 00 74 	lw	r6, r6[r0]
     388:	c8 60 00 21 	slli	r8, r6, 24
     38c:	08 61 00 2d 	srai	r8, r8, 24
     390:	04 11 00 10 	add	r4, r8, r4
     394:	c8 40 00 21 	slli	r8, r6, 16
     398:	08 61 00 2d 	srai	r8, r8, 24
     39c:	84 20 00 10 	add	r4, r4, r8
     3a0:	c8 20 00 21 	slli	r8, r6, 8
     3a4:	08 61 00 2d 	srai	r8, r8, 24
     3a8:	84 20 00 10 	add	r4, r4, r8
     3ac:	c6 60 00 2d 	srai	r6, r6, 24
     3b0:	84 18 00 10 	add	r4, r4, r6
     3b4:	21 fc ff 11 	addi	r1, r1, -1
     3b8:	06 1c 00 10 	add	r6, r0, r7
     3bc:	01 c0 ff 63 	bne	r1, r0, -16

LBB9_3:
     3c0:	64 08 00 79 	sb	r4, r2[r3]
     3c4:	00 00 00 92 	ret
