
compiler_outputs/vec_add.bin:	file format ELF32-fgpu

Disassembly of section .text:
vec_add:
       0:	42 00 00 a8 	lp	r2, 2
       4:	23 00 00 a8 	lp	r3, 1
       8:	04 00 00 a8 	lp	r4, 0
       c:	05 00 00 a0 	lid	r5, 0
      10:	06 00 00 a1 	wgoff	r6, 0
      14:	c1 14 00 10 	add	r1, r6, r5
      18:	24 10 00 74 	lw	r4, r4[r1]
      1c:	23 0c 00 74 	lw	r3, r3[r1]
      20:	63 10 00 10 	add	r3, r3, r4
      24:	23 08 00 7c 	sw	r3, r2[r1]
      28:	00 00 00 92 	ret

vec_add_half:
      2c:	42 00 00 a8 	lp	r2, 2
      30:	03 00 00 a8 	lp	r3, 0
      34:	24 00 00 a8 	lp	r4, 1
      38:	05 00 00 a0 	lid	r5, 0
      3c:	06 00 00 a1 	wgoff	r6, 0
      40:	c1 14 00 10 	add	r1, r6, r5
      44:	25 10 00 72 	lh	r5, r4[r1]
      48:	26 04 00 21 	slli	r6, r1, 1
      4c:	84 18 00 10 	add	r4, r4, r6
      50:	84 78 00 35 	xori	r4, r4, 30
      54:	84 0c 00 21 	slli	r4, r4, 3
      58:	a4 10 00 20 	sll	r4, r5, r4
      5c:	65 18 00 10 	add	r5, r3, r6
      60:	23 0c 00 72 	lh	r3, r3[r1]
      64:	a5 78 00 35 	xori	r5, r5, 30
      68:	a5 0c 00 21 	slli	r5, r5, 3
      6c:	63 14 00 20 	sll	r3, r3, r5
      70:	63 40 00 29 	srli	r3, r3, 16
      74:	84 40 00 29 	srli	r4, r4, 16
      78:	83 0c 00 10 	add	r3, r4, r3
      7c:	23 08 00 7a 	sh	r3, r2[r1]
      80:	00 00 00 92 	ret

vec_add_half_improved:
      84:	42 00 00 a8 	lp	r2, 2
      88:	03 00 00 a8 	lp	r3, 0
      8c:	24 00 00 a8 	lp	r4, 1
      90:	05 00 00 a0 	lid	r5, 0
      94:	06 00 00 a1 	wgoff	r6, 0
      98:	c1 14 00 10 	add	r1, r6, r5
      9c:	24 10 00 74 	lw	r4, r4[r1]
      a0:	23 0c 00 74 	lw	r3, r3[r1]
      a4:	65 40 00 29 	srli	r5, r3, 16
      a8:	86 40 00 29 	srli	r6, r4, 16
      ac:	c5 14 00 10 	add	r5, r6, r5
      b0:	21 08 00 21 	slli	r1, r1, 2
      b4:	41 04 00 10 	add	r1, r2, r1
      b8:	22 08 00 11 	addi	r2, r1, 2
      bc:	05 08 00 7a 	sh	r5, r2[r0]
      c0:	62 fc ff 19 	li	r2, 65535
      c4:	02 00 00 1d 	lui	r2, 0
      c8:	62 08 00 30 	and	r2, r3, r2
      cc:	82 08 00 10 	add	r2, r4, r2
      d0:	02 04 00 7a 	sh	r2, r1[r0]
      d4:	00 00 00 92 	ret

vec_add_byte:
      d8:	42 00 00 a8 	lp	r2, 2
      dc:	03 00 00 a8 	lp	r3, 0
      e0:	24 00 00 a8 	lp	r4, 1
      e4:	05 00 00 a0 	lid	r5, 0
      e8:	06 00 00 a1 	wgoff	r6, 0
      ec:	c1 14 00 10 	add	r1, r6, r5
      f0:	25 10 00 71 	lb	r5, r4[r1]
      f4:	84 04 00 10 	add	r4, r4, r1
      f8:	84 7c 00 35 	xori	r4, r4, 31
      fc:	84 0c 00 21 	slli	r4, r4, 3
     100:	a4 10 00 20 	sll	r4, r5, r4
     104:	25 0c 00 71 	lb	r5, r3[r1]
     108:	63 04 00 10 	add	r3, r3, r1
     10c:	63 7c 00 35 	xori	r3, r3, 31
     110:	63 0c 00 21 	slli	r3, r3, 3
     114:	a3 0c 00 20 	sll	r3, r5, r3
     118:	63 60 00 29 	srli	r3, r3, 24
     11c:	84 60 00 29 	srli	r4, r4, 24
     120:	83 0c 00 10 	add	r3, r4, r3
     124:	23 08 00 79 	sb	r3, r2[r1]
     128:	00 00 00 92 	ret

vec_add_byte_improved:
     12c:	42 00 00 a8 	lp	r2, 2
     130:	03 00 00 a8 	lp	r3, 0
     134:	24 00 00 a8 	lp	r4, 1
     138:	05 00 00 a0 	lid	r5, 0
     13c:	06 00 00 a1 	wgoff	r6, 0
     140:	c1 14 00 10 	add	r1, r6, r5
     144:	24 10 00 74 	lw	r4, r4[r1]
     148:	23 0c 00 74 	lw	r3, r3[r1]
     14c:	65 60 00 29 	srli	r5, r3, 24
     150:	86 60 00 29 	srli	r6, r4, 24
     154:	c5 14 00 10 	add	r5, r6, r5
     158:	66 fc 03 31 	andi	r6, r3, 255
     15c:	86 18 00 10 	add	r6, r4, r6
     160:	21 08 00 21 	slli	r1, r1, 2
     164:	26 08 00 79 	sb	r6, r2[r1]
     168:	41 04 00 10 	add	r1, r2, r1
     16c:	02 0c 00 11 	addi	r2, r0, 3
     170:	45 04 00 79 	sb	r5, r1[r2]
     174:	62 20 00 21 	slli	r2, r3, 8
     178:	42 60 00 29 	srli	r2, r2, 24
     17c:	85 40 00 29 	srli	r5, r4, 16
     180:	a2 08 00 10 	add	r2, r5, r2
     184:	05 08 00 11 	addi	r5, r0, 2
     188:	a2 04 00 79 	sb	r2, r1[r5]
     18c:	82 20 00 29 	srli	r2, r4, 8
     190:	63 40 00 21 	slli	r3, r3, 16
     194:	63 60 00 29 	srli	r3, r3, 24
     198:	42 0c 00 10 	add	r2, r2, r3
     19c:	03 04 00 11 	addi	r3, r0, 1
     1a0:	62 04 00 79 	sb	r2, r1[r3]
     1a4:	00 00 00 92 	ret

__addsf3:
     1a8:	ff fb ff 11 	addi	sp, sp, -2
     1ac:	e9 07 00 dc 	lswi	r9, sp[1]
     1b0:	ea 03 00 dc 	lswi	r10, sp[0]
     1b4:	63 fc ff 19 	li	r3, 65535
     1b8:	23 fc ff 1d 	lui	r3, 32767
     1bc:	24 0c 00 30 	and	r4, r1, r3
     1c0:	85 fc ff 11 	addi	r5, r4, -1
     1c4:	66 f8 ff 19 	li	r6, 65534
     1c8:	26 fc fd 1d 	lui	r6, 32639
     1cc:	c6 14 00 b6 	sltu	r6, r6, r5
     1d0:	45 0c 00 30 	and	r5, r2, r3
     1d4:	06 14 00 63 	bne	r6, r0, 5
     1d8:	a3 fc ff 11 	addi	r3, r5, -1
     1dc:	66 fc ff 19 	li	r6, 65535
     1e0:	26 fc fd 1d 	lui	r6, 32639
     1e4:	63 18 00 b6 	sltu	r3, r3, r6
     1e8:	03 64 00 63 	bne	r3, r0, 25

LBB5_2:
     1ec:	43 04 00 34 	xor	r3, r2, r1
     1f0:	06 00 00 19 	li	r6, 0
     1f4:	46 00 00 1d 	lui	r6, 32768
     1f8:	63 18 00 34 	xor	r3, r3, r6
     1fc:	08 00 00 19 	li	r8, 0
     200:	28 00 ff 1d 	lui	r8, 32704
     204:	07 04 00 10 	add	r7, r0, r1
     208:	07 0d 00 48 	movz	r7, r8, r3
     20c:	06 00 00 19 	li	r6, 0
     210:	26 00 fe 1d 	lui	r6, 32640
     214:	89 18 00 34 	xor	r9, r4, r6
     218:	03 04 00 10 	add	r3, r0, r1
     21c:	e3 24 00 48 	movz	r3, r7, r9
     220:	c7 14 00 b6 	sltu	r7, r6, r5
     224:	c9 10 00 b6 	sltu	r9, r6, r4
     228:	27 1d 00 32 	or	r7, r9, r7
     22c:	03 1d 00 40 	movn	r3, r8, r7
     230:	c4 68 03 62 	beq	r4, r6, 218
     234:	07 64 03 63 	bne	r7, r0, 217
     238:	03 08 00 10 	add	r3, r0, r2
     23c:	c5 5c 03 62 	beq	r5, r6, 215
     240:	04 04 00 63 	bne	r4, r0, 1
     244:	00 e0 02 62 	beq	r0, r0, 184

LBB5_8:
     248:	03 04 00 10 	add	r3, r0, r1
     24c:	05 4c 03 62 	beq	r5, r0, 211

LBB5_9:
     250:	83 14 00 b6 	sltu	r3, r4, r5
     254:	04 04 00 10 	add	r4, r0, r1
     258:	44 0c 00 40 	movn	r4, r2, r3
     25c:	22 0c 00 40 	movn	r2, r1, r3
     260:	61 fc ff 19 	li	r1, 65535
     264:	01 fc 01 1d 	lui	r1, 127
     268:	83 04 00 30 	and	r3, r4, r1
     26c:	45 5c 00 29 	srli	r5, r2, 23
     270:	a6 fc 03 31 	andi	r6, r5, 255
     274:	85 5c 00 29 	srli	r5, r4, 23
     278:	a5 fc 03 31 	andi	r5, r5, 255
     27c:	05 94 00 63 	bne	r5, r0, 37
     280:	65 04 00 29 	srli	r5, r3, 1
     284:	65 14 00 32 	or	r5, r3, r5
     288:	a7 08 00 29 	srli	r7, r5, 2
     28c:	a5 1c 00 32 	or	r5, r5, r7
     290:	a7 10 00 29 	srli	r7, r5, 4
     294:	a5 1c 00 32 	or	r5, r5, r7
     298:	a7 20 00 29 	srli	r7, r5, 8
     29c:	a5 1c 00 32 	or	r5, r5, r7
     2a0:	a7 40 00 29 	srli	r7, r5, 16
     2a4:	a5 1c 00 32 	or	r5, r5, r7
     2a8:	07 fc ff 11 	addi	r7, r0, -1
     2ac:	a5 1c 00 34 	xor	r5, r5, r7
     2b0:	27 54 55 19 	li	r7, 21845
     2b4:	27 54 55 1d 	lui	r7, 21845
     2b8:	a8 04 00 29 	srli	r8, r5, 1
     2bc:	07 1d 00 30 	and	r7, r8, r7
     2c0:	a5 1c 00 12 	sub	r5, r5, r7
     2c4:	07 cc cc 19 	li	r7, 13107
     2c8:	07 cc cc 1d 	lui	r7, 13107
     2cc:	a8 1c 00 30 	and	r8, r5, r7
     2d0:	a5 08 00 29 	srli	r5, r5, 2
     2d4:	a5 1c 00 30 	and	r5, r5, r7
     2d8:	05 15 00 10 	add	r5, r8, r5
     2dc:	a7 10 00 29 	srli	r7, r5, 4
     2e0:	a5 1c 00 10 	add	r5, r5, r7
     2e4:	07 3c 3c 19 	li	r7, 3855
     2e8:	07 3c 3c 1d 	lui	r7, 3855
     2ec:	a5 1c 00 30 	and	r5, r5, r7
     2f0:	07 04 04 19 	li	r7, 257
     2f4:	07 04 04 1d 	lui	r7, 257
     2f8:	a5 1c 00 51 	mul	r5, r5, r7
     2fc:	a7 60 00 29 	srli	r7, r5, 24
     300:	05 24 00 11 	addi	r5, r0, 9
     304:	a5 1c 00 12 	sub	r5, r5, r7
     308:	e7 60 00 11 	addi	r7, r7, 24
     30c:	e7 7c 00 31 	andi	r7, r7, 31
     310:	63 1c 00 20 	sll	r3, r3, r7

LBB5_11:
     314:	47 04 00 30 	and	r7, r2, r1
     318:	06 94 00 63 	bne	r6, r0, 37
     31c:	e6 04 00 29 	srli	r6, r7, 1
     320:	e6 18 00 32 	or	r6, r7, r6
     324:	c8 08 00 29 	srli	r8, r6, 2
     328:	c6 20 00 32 	or	r6, r6, r8
     32c:	c8 10 00 29 	srli	r8, r6, 4
     330:	c6 20 00 32 	or	r6, r6, r8
     334:	c8 20 00 29 	srli	r8, r6, 8
     338:	c6 20 00 32 	or	r6, r6, r8
     33c:	c8 40 00 29 	srli	r8, r6, 16
     340:	c6 20 00 32 	or	r6, r6, r8
     344:	08 fc ff 11 	addi	r8, r0, -1
     348:	c6 20 00 34 	xor	r6, r6, r8
     34c:	28 54 55 19 	li	r8, 21845
     350:	28 54 55 1d 	lui	r8, 21845
     354:	c9 04 00 29 	srli	r9, r6, 1
     358:	28 21 00 30 	and	r8, r9, r8
     35c:	c6 20 00 12 	sub	r6, r6, r8
     360:	08 cc cc 19 	li	r8, 13107
     364:	08 cc cc 1d 	lui	r8, 13107
     368:	c9 20 00 30 	and	r9, r6, r8
     36c:	c6 08 00 29 	srli	r6, r6, 2
     370:	c6 20 00 30 	and	r6, r6, r8
     374:	26 19 00 10 	add	r6, r9, r6
     378:	c8 10 00 29 	srli	r8, r6, 4
     37c:	c6 20 00 10 	add	r6, r6, r8
     380:	08 3c 3c 19 	li	r8, 3855
     384:	08 3c 3c 1d 	lui	r8, 3855
     388:	c6 20 00 30 	and	r6, r6, r8
     38c:	08 04 04 19 	li	r8, 257
     390:	08 04 04 1d 	lui	r8, 257
     394:	c6 20 00 51 	mul	r6, r6, r8
     398:	c8 60 00 29 	srli	r8, r6, 24
     39c:	06 24 00 11 	addi	r6, r0, 9
     3a0:	c6 20 00 12 	sub	r6, r6, r8
     3a4:	08 61 00 11 	addi	r8, r8, 24
     3a8:	08 7d 00 31 	andi	r8, r8, 31
     3ac:	e7 20 00 20 	sll	r7, r7, r8

LBB5_13:
     3b0:	82 08 00 34 	xor	r2, r4, r2
     3b4:	e7 0c 00 21 	slli	r7, r7, 3
     3b8:	08 00 00 19 	li	r8, 0
     3bc:	08 00 10 1d 	lui	r8, 1024
     3c0:	e9 20 00 32 	or	r9, r7, r8
     3c4:	63 0c 00 21 	slli	r3, r3, 3
     3c8:	07 24 00 10 	add	r7, r0, r9
     3cc:	c5 34 00 62 	beq	r5, r6, 13
     3d0:	a6 18 00 12 	sub	r6, r5, r6
     3d4:	07 7c 00 11 	addi	r7, r0, 31
     3d8:	ea 18 00 b6 	sltu	r10, r7, r6
     3dc:	07 04 00 11 	addi	r7, r0, 1
     3e0:	0a 20 00 63 	bne	r10, r0, 8
     3e4:	c7 7c 00 31 	andi	r7, r6, 31
     3e8:	27 1d 00 28 	srl	r7, r9, r7
     3ec:	06 18 00 12 	sub	r6, r0, r6
     3f0:	c6 7c 00 31 	andi	r6, r6, 31
     3f4:	26 19 00 20 	sll	r6, r9, r6
     3f8:	c6 00 00 34 	xor	r6, r6, r0
     3fc:	06 18 00 b6 	sltu	r6, r0, r6
     400:	c7 1c 00 32 	or	r7, r6, r7

LBB5_16:
     404:	68 20 00 32 	or	r8, r3, r8
     408:	06 fc ff 11 	addi	r6, r0, -1
     40c:	c2 08 00 b2 	slt	r2, r6, r2
     410:	02 04 00 63 	bne	r2, r0, 1
     414:	00 18 00 62 	beq	r0, r0, 6

LBB5_20:
     418:	e2 20 00 10 	add	r2, r7, r8
     41c:	06 00 00 19 	li	r6, 0
     420:	06 00 20 1d 	lui	r6, 2048
     424:	46 18 00 30 	and	r6, r2, r6
     428:	06 c8 00 62 	beq	r6, r0, 50
     42c:	00 b0 00 62 	beq	r0, r0, 44

LBB5_17:
     430:	03 00 00 19 	li	r3, 0
     434:	03 00 00 1d 	lui	r3, 0
     438:	e8 60 01 62 	beq	r8, r7, 88
     43c:	02 1d 00 12 	sub	r2, r8, r7
     440:	63 fc ff 19 	li	r3, 65535
     444:	03 fc 0f 1d 	lui	r3, 1023
     448:	63 08 00 b6 	sltu	r3, r3, r2
     44c:	03 a4 00 63 	bne	r3, r0, 41
     450:	43 04 00 29 	srli	r3, r2, 1
     454:	43 0c 00 32 	or	r3, r2, r3
     458:	67 08 00 29 	srli	r7, r3, 2
     45c:	63 1c 00 32 	or	r3, r3, r7
     460:	67 10 00 29 	srli	r7, r3, 4
     464:	63 1c 00 32 	or	r3, r3, r7
     468:	67 20 00 29 	srli	r7, r3, 8
     46c:	63 1c 00 32 	or	r3, r3, r7
     470:	67 40 00 29 	srli	r7, r3, 16
     474:	63 1c 00 32 	or	r3, r3, r7
     478:	63 18 00 34 	xor	r3, r3, r6
     47c:	26 54 55 19 	li	r6, 21845
     480:	26 54 55 1d 	lui	r6, 21845
     484:	67 04 00 29 	srli	r7, r3, 1
     488:	e6 18 00 30 	and	r6, r7, r6
     48c:	63 18 00 12 	sub	r3, r3, r6
     490:	06 cc cc 19 	li	r6, 13107
     494:	06 cc cc 1d 	lui	r6, 13107
     498:	67 18 00 30 	and	r7, r3, r6
     49c:	63 08 00 29 	srli	r3, r3, 2
     4a0:	63 18 00 30 	and	r3, r3, r6
     4a4:	e3 0c 00 10 	add	r3, r7, r3
     4a8:	66 10 00 29 	srli	r6, r3, 4
     4ac:	63 18 00 10 	add	r3, r3, r6
     4b0:	06 3c 3c 19 	li	r6, 3855
     4b4:	06 3c 3c 1d 	lui	r6, 3855
     4b8:	63 18 00 30 	and	r3, r3, r6
     4bc:	06 04 04 19 	li	r6, 257
     4c0:	06 04 04 1d 	lui	r6, 257
     4c4:	63 18 00 51 	mul	r3, r3, r6
     4c8:	63 60 00 29 	srli	r3, r3, 24
     4cc:	63 ec ff 11 	addi	r3, r3, -5
     4d0:	a5 0c 00 12 	sub	r5, r5, r3
     4d4:	63 7c 00 31 	andi	r3, r3, 31
     4d8:	42 0c 00 20 	sll	r2, r2, r3
     4dc:	00 14 00 62 	beq	r0, r0, 5

LBB5_21:
     4e0:	e3 0c 00 10 	add	r3, r7, r3
     4e4:	63 04 00 31 	andi	r3, r3, 1
     4e8:	42 04 00 29 	srli	r2, r2, 1
     4ec:	42 0c 00 32 	or	r2, r2, r3
     4f0:	a5 04 00 11 	addi	r5, r5, 1

LBB5_22:
     4f4:	03 00 00 19 	li	r3, 0
     4f8:	43 00 00 1d 	lui	r3, 32768
     4fc:	83 0c 00 30 	and	r3, r4, r3
     500:	04 fc 03 11 	addi	r4, r0, 255
     504:	a4 10 00 b2 	slt	r4, r5, r4
     508:	04 10 00 63 	bne	r4, r0, 4
     50c:	01 00 00 19 	li	r1, 0
     510:	21 00 fe 1d 	lui	r1, 32640
     514:	63 04 00 32 	or	r3, r3, r1
     518:	00 80 00 62 	beq	r0, r0, 32

LBB5_24:
     51c:	04 14 00 b2 	slt	r4, r0, r5
     520:	04 40 00 63 	bne	r4, r0, 16
     524:	00 10 00 62 	beq	r0, r0, 4

LBB5_6:
     528:	03 08 00 10 	add	r3, r0, r2
     52c:	05 6c 00 63 	bne	r5, r0, 27
     530:	43 04 00 30 	and	r3, r2, r1
     534:	00 64 00 62 	beq	r0, r0, 25

LBB5_25:
     538:	04 04 00 11 	addi	r4, r0, 1
     53c:	84 14 00 12 	sub	r4, r4, r5
     540:	85 7c 00 31 	andi	r5, r4, 31
     544:	46 14 00 28 	srl	r6, r2, r5
     548:	05 00 00 11 	addi	r5, r0, 0
     54c:	04 10 00 12 	sub	r4, r0, r4
     550:	84 7c 00 31 	andi	r4, r4, 31
     554:	42 10 00 20 	sll	r2, r2, r4
     558:	42 00 00 34 	xor	r2, r2, r0
     55c:	02 08 00 b6 	sltu	r2, r0, r2
     560:	42 18 00 32 	or	r2, r2, r6

LBB5_26:
     564:	44 0c 00 29 	srli	r4, r2, 3
     568:	81 04 00 30 	and	r1, r4, r1
     56c:	a4 5c 00 21 	slli	r4, r5, 23
     570:	83 0c 00 32 	or	r3, r4, r3
     574:	61 04 00 32 	or	r1, r3, r1
     578:	42 1c 00 31 	andi	r2, r2, 7
     57c:	03 10 00 11 	addi	r3, r0, 4
     580:	64 08 00 b6 	sltu	r4, r3, r2
     584:	21 10 00 10 	add	r1, r1, r4
     588:	42 0c 00 34 	xor	r2, r2, r3
     58c:	23 04 00 31 	andi	r3, r1, 1
     590:	04 00 00 11 	addi	r4, r0, 0
     594:	64 08 00 48 	movz	r4, r3, r2
     598:	83 04 00 10 	add	r3, r4, r1

LBB5_27:
     59c:	01 0c 00 10 	add	r1, r0, r3
     5a0:	ea 03 00 d4 	llwi	r10, sp[0]
     5a4:	e9 07 00 d4 	llwi	r9, sp[1]
     5a8:	ff 0b 00 11 	addi	sp, sp, 2
     5ac:	00 00 00 92 	ret

add_float:
     5b0:	42 00 00 a8 	lp	r2, 2
     5b4:	03 00 00 a8 	lp	r3, 0
     5b8:	24 00 00 a8 	lp	r4, 1
     5bc:	05 00 00 a0 	lid	r5, 0
     5c0:	06 00 00 a1 	wgoff	r6, 0
     5c4:	c1 14 00 10 	add	r1, r6, r5
     5c8:	24 10 00 74 	lw	r4, r4[r1]
     5cc:	23 0c 00 74 	lw	r3, r3[r1]
     5d0:	63 10 00 c0 	fadd	r3, r3, r4
     5d4:	23 08 00 7c 	sw	r3, r2[r1]
     5d8:	00 00 00 92 	ret
