
compiler_outputs/xcorr.bin:	file format ELF32-fgpu

Disassembly of section .text:
__addsf3:
       0:	ff fb ff 11 	addi	sp, sp, -2
       4:	e9 07 00 dc 	lswi	r9, sp[1]
       8:	ea 03 00 dc 	lswi	r10, sp[0]
       c:	63 fc ff 19 	li	r3, 65535
      10:	23 fc ff 1d 	lui	r3, 32767
      14:	24 0c 00 30 	and	r4, r1, r3
      18:	85 fc ff 11 	addi	r5, r4, -1
      1c:	66 f8 ff 19 	li	r6, 65534
      20:	26 fc fd 1d 	lui	r6, 32639
      24:	c6 14 00 b6 	sltu	r6, r6, r5
      28:	45 0c 00 30 	and	r5, r2, r3
      2c:	06 14 00 63 	bne	r6, r0, 5
      30:	a3 fc ff 11 	addi	r3, r5, -1
      34:	66 fc ff 19 	li	r6, 65535
      38:	26 fc fd 1d 	lui	r6, 32639
      3c:	63 18 00 b6 	sltu	r3, r3, r6
      40:	03 64 00 63 	bne	r3, r0, 25

LBB0_2:
      44:	43 04 00 34 	xor	r3, r2, r1
      48:	06 00 00 19 	li	r6, 0
      4c:	46 00 00 1d 	lui	r6, 32768
      50:	63 18 00 34 	xor	r3, r3, r6
      54:	08 00 00 19 	li	r8, 0
      58:	28 00 ff 1d 	lui	r8, 32704
      5c:	07 04 00 10 	add	r7, r0, r1
      60:	07 0d 00 48 	movz	r7, r8, r3
      64:	06 00 00 19 	li	r6, 0
      68:	26 00 fe 1d 	lui	r6, 32640
      6c:	89 18 00 34 	xor	r9, r4, r6
      70:	03 04 00 10 	add	r3, r0, r1
      74:	e3 24 00 48 	movz	r3, r7, r9
      78:	c7 14 00 b6 	sltu	r7, r6, r5
      7c:	c9 10 00 b6 	sltu	r9, r6, r4
      80:	27 1d 00 32 	or	r7, r9, r7
      84:	03 1d 00 40 	movn	r3, r8, r7
      88:	c4 54 03 62 	beq	r4, r6, 213
      8c:	07 50 03 63 	bne	r7, r0, 212
      90:	03 08 00 10 	add	r3, r0, r2
      94:	c5 48 03 62 	beq	r5, r6, 210
      98:	04 04 00 63 	bne	r4, r0, 1
      9c:	00 cc 02 62 	beq	r0, r0, 179

LBB0_8:
      a0:	03 04 00 10 	add	r3, r0, r1
      a4:	05 38 03 62 	beq	r5, r0, 206

LBB0_9:
      a8:	83 14 00 b6 	sltu	r3, r4, r5
      ac:	04 04 00 10 	add	r4, r0, r1
      b0:	44 0c 00 40 	movn	r4, r2, r3
      b4:	22 0c 00 40 	movn	r2, r1, r3
      b8:	61 fc ff 19 	li	r1, 65535
      bc:	01 fc 01 1d 	lui	r1, 127
      c0:	83 04 00 30 	and	r3, r4, r1
      c4:	45 5c 00 29 	srli	r5, r2, 23
      c8:	a6 fc 03 31 	andi	r6, r5, 255
      cc:	85 5c 00 29 	srli	r5, r4, 23
      d0:	a5 fc 03 31 	andi	r5, r5, 255
      d4:	05 8c 00 63 	bne	r5, r0, 35
      d8:	65 04 00 29 	srli	r5, r3, 1
      dc:	65 14 00 32 	or	r5, r3, r5
      e0:	a7 08 00 29 	srli	r7, r5, 2
      e4:	a5 1c 00 32 	or	r5, r5, r7
      e8:	a7 10 00 29 	srli	r7, r5, 4
      ec:	a5 1c 00 32 	or	r5, r5, r7
      f0:	a7 20 00 29 	srli	r7, r5, 8
      f4:	a5 1c 00 32 	or	r5, r5, r7
      f8:	a7 40 00 29 	srli	r7, r5, 16
      fc:	a5 1c 00 38 	nor	r5, r5, r7
     100:	27 54 55 19 	li	r7, 21845
     104:	27 54 55 1d 	lui	r7, 21845
     108:	a8 04 00 29 	srli	r8, r5, 1
     10c:	07 1d 00 30 	and	r7, r8, r7
     110:	a5 1c 00 12 	sub	r5, r5, r7
     114:	07 cc cc 19 	li	r7, 13107
     118:	07 cc cc 1d 	lui	r7, 13107
     11c:	a8 1c 00 30 	and	r8, r5, r7
     120:	a5 08 00 29 	srli	r5, r5, 2
     124:	a5 1c 00 30 	and	r5, r5, r7
     128:	05 15 00 10 	add	r5, r8, r5
     12c:	a7 10 00 29 	srli	r7, r5, 4
     130:	a5 1c 00 10 	add	r5, r5, r7
     134:	07 3c 3c 19 	li	r7, 3855
     138:	07 3c 3c 1d 	lui	r7, 3855
     13c:	a5 1c 00 30 	and	r5, r5, r7
     140:	07 04 04 19 	li	r7, 257
     144:	07 04 04 1d 	lui	r7, 257
     148:	a5 1c 00 51 	mul	r5, r5, r7
     14c:	a7 60 00 29 	srli	r7, r5, 24
     150:	05 24 00 11 	addi	r5, r0, 9
     154:	a5 1c 00 12 	sub	r5, r5, r7
     158:	e7 60 00 11 	addi	r7, r7, 24
     15c:	e7 7c 00 31 	andi	r7, r7, 31
     160:	63 1c 00 20 	sll	r3, r3, r7

LBB0_11:
     164:	47 04 00 30 	and	r7, r2, r1
     168:	06 8c 00 63 	bne	r6, r0, 35
     16c:	e6 04 00 29 	srli	r6, r7, 1
     170:	e6 18 00 32 	or	r6, r7, r6
     174:	c8 08 00 29 	srli	r8, r6, 2
     178:	c6 20 00 32 	or	r6, r6, r8
     17c:	c8 10 00 29 	srli	r8, r6, 4
     180:	c6 20 00 32 	or	r6, r6, r8
     184:	c8 20 00 29 	srli	r8, r6, 8
     188:	c6 20 00 32 	or	r6, r6, r8
     18c:	c8 40 00 29 	srli	r8, r6, 16
     190:	c6 20 00 38 	nor	r6, r6, r8
     194:	28 54 55 19 	li	r8, 21845
     198:	28 54 55 1d 	lui	r8, 21845
     19c:	c9 04 00 29 	srli	r9, r6, 1
     1a0:	28 21 00 30 	and	r8, r9, r8
     1a4:	c6 20 00 12 	sub	r6, r6, r8
     1a8:	08 cc cc 19 	li	r8, 13107
     1ac:	08 cc cc 1d 	lui	r8, 13107
     1b0:	c9 20 00 30 	and	r9, r6, r8
     1b4:	c6 08 00 29 	srli	r6, r6, 2
     1b8:	c6 20 00 30 	and	r6, r6, r8
     1bc:	26 19 00 10 	add	r6, r9, r6
     1c0:	c8 10 00 29 	srli	r8, r6, 4
     1c4:	c6 20 00 10 	add	r6, r6, r8
     1c8:	08 3c 3c 19 	li	r8, 3855
     1cc:	08 3c 3c 1d 	lui	r8, 3855
     1d0:	c6 20 00 30 	and	r6, r6, r8
     1d4:	08 04 04 19 	li	r8, 257
     1d8:	08 04 04 1d 	lui	r8, 257
     1dc:	c6 20 00 51 	mul	r6, r6, r8
     1e0:	c8 60 00 29 	srli	r8, r6, 24
     1e4:	06 24 00 11 	addi	r6, r0, 9
     1e8:	c6 20 00 12 	sub	r6, r6, r8
     1ec:	08 61 00 11 	addi	r8, r8, 24
     1f0:	08 7d 00 31 	andi	r8, r8, 31
     1f4:	e7 20 00 20 	sll	r7, r7, r8

LBB0_13:
     1f8:	82 08 00 34 	xor	r2, r4, r2
     1fc:	e7 0c 00 21 	slli	r7, r7, 3
     200:	08 00 00 19 	li	r8, 0
     204:	08 00 10 1d 	lui	r8, 1024
     208:	e9 20 00 32 	or	r9, r7, r8
     20c:	63 0c 00 21 	slli	r3, r3, 3
     210:	07 24 00 10 	add	r7, r0, r9
     214:	c5 34 00 62 	beq	r5, r6, 13
     218:	a6 18 00 12 	sub	r6, r5, r6
     21c:	07 7c 00 11 	addi	r7, r0, 31
     220:	ea 18 00 b6 	sltu	r10, r7, r6
     224:	07 04 00 11 	addi	r7, r0, 1
     228:	0a 20 00 63 	bne	r10, r0, 8
     22c:	c7 7c 00 31 	andi	r7, r6, 31
     230:	27 1d 00 28 	srl	r7, r9, r7
     234:	06 18 00 12 	sub	r6, r0, r6
     238:	c6 7c 00 31 	andi	r6, r6, 31
     23c:	26 19 00 20 	sll	r6, r9, r6
     240:	c6 00 00 34 	xor	r6, r6, r0
     244:	06 18 00 b6 	sltu	r6, r0, r6
     248:	c7 1c 00 32 	or	r7, r6, r7

LBB0_16:
     24c:	66 20 00 32 	or	r6, r3, r8
     250:	08 fc ff 11 	addi	r8, r0, -1
     254:	02 09 00 b2 	slt	r2, r8, r2
     258:	02 04 00 63 	bne	r2, r0, 1
     25c:	00 18 00 62 	beq	r0, r0, 6

LBB0_20:
     260:	e2 18 00 10 	add	r2, r7, r6
     264:	06 00 00 19 	li	r6, 0
     268:	06 00 20 1d 	lui	r6, 2048
     26c:	46 18 00 30 	and	r6, r2, r6
     270:	06 c4 00 62 	beq	r6, r0, 49
     274:	00 ac 00 62 	beq	r0, r0, 43

LBB0_17:
     278:	03 00 00 19 	li	r3, 0
     27c:	03 00 00 1d 	lui	r3, 0
     280:	e6 5c 01 62 	beq	r6, r7, 87
     284:	c2 1c 00 12 	sub	r2, r6, r7
     288:	63 fc ff 19 	li	r3, 65535
     28c:	03 fc 0f 1d 	lui	r3, 1023
     290:	63 08 00 b6 	sltu	r3, r3, r2
     294:	03 a0 00 63 	bne	r3, r0, 40
     298:	43 04 00 29 	srli	r3, r2, 1
     29c:	43 0c 00 32 	or	r3, r2, r3
     2a0:	66 08 00 29 	srli	r6, r3, 2
     2a4:	63 18 00 32 	or	r3, r3, r6
     2a8:	66 10 00 29 	srli	r6, r3, 4
     2ac:	63 18 00 32 	or	r3, r3, r6
     2b0:	66 20 00 29 	srli	r6, r3, 8
     2b4:	63 18 00 32 	or	r3, r3, r6
     2b8:	66 40 00 29 	srli	r6, r3, 16
     2bc:	63 18 00 38 	nor	r3, r3, r6
     2c0:	26 54 55 19 	li	r6, 21845
     2c4:	26 54 55 1d 	lui	r6, 21845
     2c8:	67 04 00 29 	srli	r7, r3, 1
     2cc:	e6 18 00 30 	and	r6, r7, r6
     2d0:	63 18 00 12 	sub	r3, r3, r6
     2d4:	06 cc cc 19 	li	r6, 13107
     2d8:	06 cc cc 1d 	lui	r6, 13107
     2dc:	67 18 00 30 	and	r7, r3, r6
     2e0:	63 08 00 29 	srli	r3, r3, 2
     2e4:	63 18 00 30 	and	r3, r3, r6
     2e8:	e3 0c 00 10 	add	r3, r7, r3
     2ec:	66 10 00 29 	srli	r6, r3, 4
     2f0:	63 18 00 10 	add	r3, r3, r6
     2f4:	06 3c 3c 19 	li	r6, 3855
     2f8:	06 3c 3c 1d 	lui	r6, 3855
     2fc:	63 18 00 30 	and	r3, r3, r6
     300:	06 04 04 19 	li	r6, 257
     304:	06 04 04 1d 	lui	r6, 257
     308:	63 18 00 51 	mul	r3, r3, r6
     30c:	63 60 00 29 	srli	r3, r3, 24
     310:	63 ec ff 11 	addi	r3, r3, -5
     314:	a5 0c 00 12 	sub	r5, r5, r3
     318:	63 7c 00 31 	andi	r3, r3, 31
     31c:	42 0c 00 20 	sll	r2, r2, r3
     320:	00 14 00 62 	beq	r0, r0, 5

LBB0_21:
     324:	e3 0c 00 10 	add	r3, r7, r3
     328:	63 04 00 31 	andi	r3, r3, 1
     32c:	42 04 00 29 	srli	r2, r2, 1
     330:	42 0c 00 32 	or	r2, r2, r3
     334:	a5 04 00 11 	addi	r5, r5, 1

LBB0_22:
     338:	03 00 00 19 	li	r3, 0
     33c:	43 00 00 1d 	lui	r3, 32768
     340:	83 0c 00 30 	and	r3, r4, r3
     344:	04 fc 03 11 	addi	r4, r0, 255
     348:	a4 10 00 b2 	slt	r4, r5, r4
     34c:	04 10 00 63 	bne	r4, r0, 4
     350:	01 00 00 19 	li	r1, 0
     354:	21 00 fe 1d 	lui	r1, 32640
     358:	63 04 00 32 	or	r3, r3, r1
     35c:	00 80 00 62 	beq	r0, r0, 32

LBB0_24:
     360:	04 14 00 b2 	slt	r4, r0, r5
     364:	04 40 00 63 	bne	r4, r0, 16
     368:	00 10 00 62 	beq	r0, r0, 4

LBB0_6:
     36c:	03 08 00 10 	add	r3, r0, r2
     370:	05 6c 00 63 	bne	r5, r0, 27
     374:	43 04 00 30 	and	r3, r2, r1
     378:	00 64 00 62 	beq	r0, r0, 25

LBB0_25:
     37c:	04 04 00 11 	addi	r4, r0, 1
     380:	84 14 00 12 	sub	r4, r4, r5
     384:	85 7c 00 31 	andi	r5, r4, 31
     388:	46 14 00 28 	srl	r6, r2, r5
     38c:	05 00 00 11 	addi	r5, r0, 0
     390:	04 10 00 12 	sub	r4, r0, r4
     394:	84 7c 00 31 	andi	r4, r4, 31
     398:	42 10 00 20 	sll	r2, r2, r4
     39c:	42 00 00 34 	xor	r2, r2, r0
     3a0:	02 08 00 b6 	sltu	r2, r0, r2
     3a4:	42 18 00 32 	or	r2, r2, r6

LBB0_26:
     3a8:	44 0c 00 29 	srli	r4, r2, 3
     3ac:	81 04 00 30 	and	r1, r4, r1
     3b0:	a4 5c 00 21 	slli	r4, r5, 23
     3b4:	83 0c 00 32 	or	r3, r4, r3
     3b8:	61 04 00 32 	or	r1, r3, r1
     3bc:	42 1c 00 31 	andi	r2, r2, 7
     3c0:	03 10 00 11 	addi	r3, r0, 4
     3c4:	64 08 00 b6 	sltu	r4, r3, r2
     3c8:	21 10 00 10 	add	r1, r1, r4
     3cc:	42 0c 00 34 	xor	r2, r2, r3
     3d0:	23 04 00 31 	andi	r3, r1, 1
     3d4:	04 00 00 11 	addi	r4, r0, 0
     3d8:	64 08 00 48 	movz	r4, r3, r2
     3dc:	83 04 00 10 	add	r3, r4, r1

LBB0_27:
     3e0:	01 0c 00 10 	add	r1, r0, r3
     3e4:	ea 03 00 d4 	llwi	r10, sp[0]
     3e8:	e9 07 00 d4 	llwi	r9, sp[1]
     3ec:	ff 0b 00 11 	addi	sp, sp, 2
     3f0:	00 00 00 92 	ret

__muldsi3:
     3f4:	63 fc ff 19 	li	r3, 65535
     3f8:	03 00 00 1d 	lui	r3, 0
     3fc:	24 0c 00 30 	and	r4, r1, r3
     400:	21 40 00 29 	srli	r1, r1, 16
     404:	45 0c 00 30 	and	r5, r2, r3
     408:	a6 10 00 51 	mul	r6, r5, r4
     40c:	c7 40 00 29 	srli	r7, r6, 16
     410:	a7 04 00 58 	macc	r7, r5, r1
     414:	42 40 00 29 	srli	r2, r2, 16
     418:	e5 40 00 29 	srli	r5, r7, 16
     41c:	45 04 00 58 	macc	r5, r2, r1
     420:	e8 0c 00 30 	and	r8, r7, r3
     424:	48 10 00 58 	macc	r8, r2, r4
     428:	47 10 00 58 	macc	r7, r2, r4
     42c:	c1 0c 00 30 	and	r1, r6, r3
     430:	e2 40 00 21 	slli	r2, r7, 16
     434:	41 04 00 32 	or	r1, r2, r1
     438:	02 41 00 29 	srli	r2, r8, 16
     43c:	a2 08 00 10 	add	r2, r5, r2
     440:	00 00 00 92 	ret

__muldi3:
     444:	ff fb ff 11 	addi	sp, sp, -2
     448:	e9 07 00 dc 	lswi	r9, sp[1]
     44c:	ea 03 00 dc 	lswi	r10, sp[0]
     450:	65 fc ff 19 	li	r5, 65535
     454:	05 00 00 1d 	lui	r5, 0
     458:	26 14 00 30 	and	r6, r1, r5
     45c:	67 14 00 30 	and	r7, r3, r5
     460:	e8 18 00 51 	mul	r8, r7, r6
     464:	09 41 00 29 	srli	r9, r8, 16
     468:	2a 40 00 29 	srli	r10, r1, 16
     46c:	e9 28 00 58 	macc	r9, r7, r10
     470:	84 04 00 51 	mul	r4, r4, r1
     474:	44 0c 00 58 	macc	r4, r2, r3
     478:	61 40 00 29 	srli	r1, r3, 16
     47c:	24 28 00 58 	macc	r4, r1, r10
     480:	02 15 00 30 	and	r2, r8, r5
     484:	23 15 00 30 	and	r3, r9, r5
     488:	23 18 00 58 	macc	r3, r1, r6
     48c:	25 41 00 29 	srli	r5, r9, 16
     490:	29 18 00 58 	macc	r9, r1, r6
     494:	21 41 00 21 	slli	r1, r9, 16
     498:	21 08 00 32 	or	r1, r1, r2
     49c:	82 14 00 10 	add	r2, r4, r5
     4a0:	63 40 00 29 	srli	r3, r3, 16
     4a4:	42 0c 00 10 	add	r2, r2, r3
     4a8:	ea 03 00 d4 	llwi	r10, sp[0]
     4ac:	e9 07 00 d4 	llwi	r9, sp[1]
     4b0:	ff 0b 00 11 	addi	sp, sp, 2
     4b4:	00 00 00 92 	ret

__mulsf3:
     4b8:	ff e3 ff 11 	addi	sp, sp, -8
     4bc:	e9 1f 00 dc 	lswi	r9, sp[7]
     4c0:	ea 1b 00 dc 	lswi	r10, sp[6]
     4c4:	eb 17 00 dc 	lswi	r11, sp[5]
     4c8:	ec 13 00 dc 	lswi	r12, sp[4]
     4cc:	ed 0f 00 dc 	lswi	r13, sp[3]
     4d0:	ee 0b 00 dc 	lswi	r14, sp[2]
     4d4:	ef 07 00 dc 	lswi	r15, sp[1]
     4d8:	f0 03 00 dc 	lswi	r16, sp[0]
     4dc:	43 04 00 34 	xor	r3, r2, r1
     4e0:	0b 00 00 19 	li	r11, 0
     4e4:	4b 00 00 1d 	lui	r11, 32768
     4e8:	6a 2c 00 30 	and	r10, r3, r11
     4ec:	23 5c 00 29 	srli	r3, r1, 23
     4f0:	6d fc 03 31 	andi	r13, r3, 255
     4f4:	a3 fd ff 11 	addi	r3, r13, -1
     4f8:	04 f4 03 11 	addi	r4, r0, 253
     4fc:	85 0c 00 b6 	sltu	r5, r4, r3
     500:	6c fc ff 19 	li	r12, 65535
     504:	0c fc 01 1d 	lui	r12, 127
     508:	23 30 00 30 	and	r3, r1, r12
     50c:	44 30 00 30 	and	r4, r2, r12
     510:	46 5c 00 29 	srli	r6, r2, 23
     514:	ce fc 03 31 	andi	r14, r6, 255
     518:	05 14 00 63 	bne	r5, r0, 5
     51c:	0f 00 00 11 	addi	r15, r0, 0
     520:	c5 fd ff 11 	addi	r5, r14, -1
     524:	06 f8 03 11 	addi	r6, r0, 254
     528:	a5 18 00 b6 	sltu	r5, r5, r6
     52c:	05 74 01 63 	bne	r5, r0, 93

LBB3_2:
     530:	67 fc ff 19 	li	r7, 65535
     534:	27 fc ff 1d 	lui	r7, 32767
     538:	25 1c 00 30 	and	r5, r1, r7
     53c:	01 00 00 19 	li	r1, 0
     540:	21 00 ff 1d 	lui	r1, 32704
     544:	06 00 00 19 	li	r6, 0
     548:	26 00 fe 1d 	lui	r6, 32640
     54c:	c8 14 00 b6 	sltu	r8, r6, r5
     550:	08 60 02 63 	bne	r8, r0, 152
     554:	42 1c 00 30 	and	r2, r2, r7
     558:	c7 08 00 b6 	sltu	r7, r6, r2
     55c:	07 54 02 63 	bne	r7, r0, 149
     560:	c5 bc 01 62 	beq	r5, r6, 111
     564:	c2 04 00 63 	bne	r2, r6, 1
     568:	00 b4 01 62 	beq	r0, r0, 109

LBB3_7:
     56c:	05 fc 01 62 	beq	r5, r0, 127
     570:	02 04 00 63 	bne	r2, r0, 1
     574:	00 f4 01 62 	beq	r0, r0, 125

LBB3_10:
     578:	81 15 00 b6 	sltu	r1, r12, r5
     57c:	0f 00 00 11 	addi	r15, r0, 0
     580:	01 8c 00 63 	bne	r1, r0, 35
     584:	61 04 00 29 	srli	r1, r3, 1
     588:	61 04 00 32 	or	r1, r3, r1
     58c:	25 08 00 29 	srli	r5, r1, 2
     590:	21 14 00 32 	or	r1, r1, r5
     594:	25 10 00 29 	srli	r5, r1, 4
     598:	21 14 00 32 	or	r1, r1, r5
     59c:	25 20 00 29 	srli	r5, r1, 8
     5a0:	21 14 00 32 	or	r1, r1, r5
     5a4:	25 40 00 29 	srli	r5, r1, 16
     5a8:	21 14 00 38 	nor	r1, r1, r5
     5ac:	25 54 55 19 	li	r5, 21845
     5b0:	25 54 55 1d 	lui	r5, 21845
     5b4:	26 04 00 29 	srli	r6, r1, 1
     5b8:	c5 14 00 30 	and	r5, r6, r5
     5bc:	21 14 00 12 	sub	r1, r1, r5
     5c0:	05 cc cc 19 	li	r5, 13107
     5c4:	05 cc cc 1d 	lui	r5, 13107
     5c8:	26 14 00 30 	and	r6, r1, r5
     5cc:	21 08 00 29 	srli	r1, r1, 2
     5d0:	21 14 00 30 	and	r1, r1, r5
     5d4:	c1 04 00 10 	add	r1, r6, r1
     5d8:	25 10 00 29 	srli	r5, r1, 4
     5dc:	21 14 00 10 	add	r1, r1, r5
     5e0:	05 3c 3c 19 	li	r5, 3855
     5e4:	05 3c 3c 1d 	lui	r5, 3855
     5e8:	21 14 00 30 	and	r1, r1, r5
     5ec:	05 04 04 19 	li	r5, 257
     5f0:	05 04 04 1d 	lui	r5, 257
     5f4:	21 14 00 51 	mul	r1, r1, r5
     5f8:	21 60 00 29 	srli	r1, r1, 24
     5fc:	05 24 00 11 	addi	r5, r0, 9
     600:	af 04 00 12 	sub	r15, r5, r1
     604:	21 60 00 11 	addi	r1, r1, 24
     608:	21 7c 00 31 	andi	r1, r1, 31
     60c:	63 04 00 20 	sll	r3, r3, r1

LBB3_12:
     610:	81 09 00 b6 	sltu	r1, r12, r2
     614:	01 8c 00 63 	bne	r1, r0, 35
     618:	81 04 00 29 	srli	r1, r4, 1
     61c:	81 04 00 32 	or	r1, r4, r1
     620:	22 08 00 29 	srli	r2, r1, 2
     624:	21 08 00 32 	or	r1, r1, r2
     628:	22 10 00 29 	srli	r2, r1, 4
     62c:	21 08 00 32 	or	r1, r1, r2
     630:	22 20 00 29 	srli	r2, r1, 8
     634:	21 08 00 32 	or	r1, r1, r2
     638:	22 40 00 29 	srli	r2, r1, 16
     63c:	21 08 00 38 	nor	r1, r1, r2
     640:	22 54 55 19 	li	r2, 21845
     644:	22 54 55 1d 	lui	r2, 21845
     648:	25 04 00 29 	srli	r5, r1, 1
     64c:	a2 08 00 30 	and	r2, r5, r2
     650:	21 08 00 12 	sub	r1, r1, r2
     654:	02 cc cc 19 	li	r2, 13107
     658:	02 cc cc 1d 	lui	r2, 13107
     65c:	25 08 00 30 	and	r5, r1, r2
     660:	21 08 00 29 	srli	r1, r1, 2
     664:	21 08 00 30 	and	r1, r1, r2
     668:	a1 04 00 10 	add	r1, r5, r1
     66c:	22 10 00 29 	srli	r2, r1, 4
     670:	21 08 00 10 	add	r1, r1, r2
     674:	02 3c 3c 19 	li	r2, 3855
     678:	02 3c 3c 1d 	lui	r2, 3855
     67c:	21 08 00 30 	and	r1, r1, r2
     680:	02 04 04 19 	li	r2, 257
     684:	02 04 04 1d 	lui	r2, 257
     688:	21 08 00 51 	mul	r1, r1, r2
     68c:	e2 25 00 11 	addi	r2, r15, 9
     690:	21 60 00 29 	srli	r1, r1, 24
     694:	4f 04 00 12 	sub	r15, r2, r1
     698:	21 60 00 11 	addi	r1, r1, 24
     69c:	21 7c 00 31 	andi	r1, r1, 31
     6a0:	84 04 00 20 	sll	r4, r4, r1

LBB3_14:
     6a4:	81 20 00 21 	slli	r1, r4, 8
     6a8:	21 2c 00 32 	or	r1, r1, r11
     6ac:	10 00 00 19 	li	r16, 0
     6b0:	10 00 02 1d 	lui	r16, 128
     6b4:	63 40 00 32 	or	r3, r3, r16
     6b8:	09 00 00 11 	addi	r9, r0, 0
     6bc:	02 24 00 10 	add	r2, r0, r9
     6c0:	04 24 00 10 	add	r4, r0, r9
     6c4:	00 80 fd 64 	jsub	-160
     6c8:	23 7c 00 29 	srli	r3, r1, 31
     6cc:	44 08 00 10 	add	r4, r2, r2
     6d0:	83 0c 00 32 	or	r3, r4, r3
     6d4:	44 40 00 30 	and	r4, r2, r16
     6d8:	84 5c 00 29 	srli	r4, r4, 23
     6dc:	43 10 00 40 	movn	r3, r2, r4
     6e0:	82 04 00 35 	xori	r2, r4, 1
     6e4:	21 08 00 20 	sll	r1, r1, r2
     6e8:	a2 39 00 10 	add	r2, r13, r14
     6ec:	42 3c 00 10 	add	r2, r2, r15
     6f0:	42 10 00 10 	add	r2, r2, r4
     6f4:	42 04 fe 11 	addi	r2, r2, -127
     6f8:	04 08 00 b2 	slt	r4, r0, r2
     6fc:	04 74 00 63 	bne	r4, r0, 29
     700:	04 04 00 11 	addi	r4, r0, 1
     704:	84 08 00 12 	sub	r4, r4, r2
     708:	05 7c 00 11 	addi	r5, r0, 31
     70c:	a5 10 00 b6 	sltu	r5, r5, r4
     710:	05 04 00 63 	bne	r5, r0, 1
     714:	00 24 00 62 	beq	r0, r0, 9

LBB3_17:
     718:	01 28 00 10 	add	r1, r0, r10
     71c:	00 94 00 62 	beq	r0, r0, 37

LBB3_6:
     720:	a1 18 00 34 	xor	r1, r5, r6
     724:	45 04 00 48 	movz	r5, r2, r1
     728:	42 19 00 32 	or	r2, r10, r6
     72c:	01 00 00 19 	li	r1, 0
     730:	21 00 ff 1d 	lui	r1, 32704
     734:	41 14 00 40 	movn	r1, r2, r5
     738:	00 78 00 62 	beq	r0, r0, 30

LBB3_16:
     73c:	05 10 00 12 	sub	r5, r0, r4
     740:	a5 7c 00 31 	andi	r5, r5, 31
     744:	84 7c 00 31 	andi	r4, r4, 31
     748:	26 10 00 28 	srl	r6, r1, r4
     74c:	67 14 00 20 	sll	r7, r3, r5
     750:	e6 18 00 32 	or	r6, r7, r6
     754:	21 14 00 20 	sll	r1, r1, r5
     758:	21 00 00 34 	xor	r1, r1, r0
     75c:	01 04 00 b6 	sltu	r1, r0, r1
     760:	c1 04 00 32 	or	r1, r6, r1
     764:	63 10 00 28 	srl	r3, r3, r4
     768:	00 14 00 62 	beq	r0, r0, 5

LBB3_9:
     76c:	01 28 00 10 	add	r1, r0, r10
     770:	00 40 00 62 	beq	r0, r0, 16

LBB3_18:
     774:	63 30 00 30 	and	r3, r3, r12
     778:	44 5c 00 21 	slli	r4, r2, 23
     77c:	63 10 00 32 	or	r3, r3, r4

LBB3_19:
     780:	63 28 00 32 	or	r3, r3, r10
     784:	64 05 00 b6 	sltu	r4, r11, r1
     788:	83 0c 00 10 	add	r3, r4, r3
     78c:	21 2c 00 34 	xor	r1, r1, r11
     790:	64 04 00 31 	andi	r4, r3, 1
     794:	89 04 00 48 	movz	r9, r4, r1
     798:	21 0d 00 10 	add	r1, r9, r3
     79c:	03 f8 03 11 	addi	r3, r0, 254
     7a0:	62 08 00 b2 	slt	r2, r3, r2
     7a4:	03 00 00 19 	li	r3, 0
     7a8:	23 00 fe 1d 	lui	r3, 32640
     7ac:	43 0d 00 32 	or	r3, r10, r3
     7b0:	61 08 00 40 	movn	r1, r3, r2

LBB3_20:
     7b4:	f0 03 00 d4 	llwi	r16, sp[0]
     7b8:	ef 07 00 d4 	llwi	r15, sp[1]
     7bc:	ee 0b 00 d4 	llwi	r14, sp[2]
     7c0:	ed 0f 00 d4 	llwi	r13, sp[3]
     7c4:	ec 13 00 d4 	llwi	r12, sp[4]
     7c8:	eb 17 00 d4 	llwi	r11, sp[5]
     7cc:	ea 1b 00 d4 	llwi	r10, sp[6]
     7d0:	e9 1f 00 d4 	llwi	r9, sp[7]
     7d4:	ff 23 00 11 	addi	sp, sp, 8
     7d8:	00 00 00 92 	ret

xcorr:
     7dc:	42 00 00 a8 	lp	r2, 2
     7e0:	03 00 00 a8 	lp	r3, 0
     7e4:	25 00 00 a8 	lp	r5, 1
     7e8:	04 00 00 a0 	lid	r4, 0
     7ec:	06 00 00 a1 	wgoff	r6, 0
     7f0:	c4 10 00 10 	add	r4, r6, r4
     7f4:	81 08 00 21 	slli	r1, r4, 2
     7f8:	a6 04 00 10 	add	r6, r5, r1
     7fc:	05 00 00 11 	addi	r5, r0, 0
     800:	07 00 00 a2 	size	r7, 0

LBB4_1:
     804:	01 0c 00 74 	lw	r1, r3[r0]
     808:	08 18 00 74 	lw	r8, r6[r0]
     80c:	05 05 00 58 	macc	r5, r8, r1
     810:	63 10 00 11 	addi	r3, r3, 4
     814:	c6 10 00 11 	addi	r6, r6, 4
     818:	e7 fc ff 11 	addi	r7, r7, -1
     81c:	07 e4 ff 63 	bne	r7, r0, -7
     820:	85 08 00 7c 	sw	r5, r2[r4]
     824:	00 00 00 92 	ret

xcorr_improved:
     828:	42 00 00 a8 	lp	r2, 2
     82c:	03 00 00 a8 	lp	r3, 0
     830:	24 00 00 a8 	lp	r4, 1
     834:	05 00 00 a0 	lid	r5, 0
     838:	06 00 00 a1 	wgoff	r6, 0
     83c:	c6 14 00 10 	add	r6, r6, r5
     840:	c1 10 00 21 	slli	r1, r6, 4
     844:	27 10 00 10 	add	r7, r1, r4
     848:	04 00 00 11 	addi	r4, r0, 0
     84c:	05 00 00 a2 	size	r5, 0
     850:	a5 08 00 21 	slli	r5, r5, 2
     854:	c1 08 00 21 	slli	r1, r6, 2
     858:	e6 20 00 11 	addi	r6, r7, 8
     85c:	07 10 00 11 	addi	r7, r0, 4
     860:	08 f0 ff 11 	addi	r8, r0, -4
     864:	0a e0 ff 11 	addi	r10, r0, -8
     868:	0c 10 00 10 	add	r12, r0, r4
     86c:	0b 10 00 10 	add	r11, r0, r4
     870:	09 10 00 10 	add	r9, r0, r4

LBB5_1:
     874:	0d 0c 00 74 	lw	r13, r3[r0]
     878:	0e 18 00 74 	lw	r14, r6[r0]
     87c:	cb 35 00 58 	macc	r11, r14, r13
     880:	ee 18 00 71 	lb	r14, r6[r7]
     884:	c9 35 00 58 	macc	r9, r14, r13
     888:	0e 19 00 71 	lb	r14, r6[r8]
     88c:	cc 35 00 58 	macc	r12, r14, r13
     890:	4e 19 00 71 	lb	r14, r6[r10]
     894:	c4 35 00 58 	macc	r4, r14, r13
     898:	63 10 00 11 	addi	r3, r3, 4
     89c:	c6 10 00 11 	addi	r6, r6, 4
     8a0:	a5 fc ff 11 	addi	r5, r5, -1
     8a4:	05 cc ff 63 	bne	r5, r0, -13
     8a8:	24 08 00 7c 	sw	r4, r2[r1]
     8ac:	23 04 00 33 	ori	r3, r1, 1
     8b0:	6c 08 00 7c 	sw	r12, r2[r3]
     8b4:	23 08 00 33 	ori	r3, r1, 2
     8b8:	6b 08 00 7c 	sw	r11, r2[r3]
     8bc:	21 0c 00 33 	ori	r1, r1, 3
     8c0:	29 08 00 7c 	sw	r9, r2[r1]
     8c4:	00 00 00 92 	ret

xcorr_half:
     8c8:	42 00 00 a8 	lp	r2, 2
     8cc:	03 00 00 a8 	lp	r3, 0
     8d0:	25 00 00 a8 	lp	r5, 1
     8d4:	04 00 00 a0 	lid	r4, 0
     8d8:	06 00 00 a1 	wgoff	r6, 0
     8dc:	c4 10 00 10 	add	r4, r6, r4
     8e0:	81 04 00 21 	slli	r1, r4, 1
     8e4:	a6 04 00 10 	add	r6, r5, r1
     8e8:	05 00 00 11 	addi	r5, r0, 0
     8ec:	07 00 00 a2 	size	r7, 0

LBB6_1:
     8f0:	c1 78 00 35 	xori	r1, r6, 30
     8f4:	21 0c 00 21 	slli	r1, r1, 3
     8f8:	08 18 00 74 	lw	r8, r6[r0]
     8fc:	01 05 00 20 	sll	r1, r8, r1
     900:	68 78 00 35 	xori	r8, r3, 30
     904:	08 0d 00 21 	slli	r8, r8, 3
     908:	09 0c 00 74 	lw	r9, r3[r0]
     90c:	28 21 00 20 	sll	r8, r9, r8
     910:	08 41 00 2d 	srai	r8, r8, 16
     914:	21 40 00 2d 	srai	r1, r1, 16
     918:	25 20 00 58 	macc	r5, r1, r8
     91c:	63 08 00 11 	addi	r3, r3, 2
     920:	c6 08 00 11 	addi	r6, r6, 2
     924:	e7 fc ff 11 	addi	r7, r7, -1
     928:	07 c4 ff 63 	bne	r7, r0, -15
     92c:	85 08 00 7a 	sh	r5, r2[r4]
     930:	00 00 00 92 	ret

xcorr_half_improved:
     934:	42 00 00 a8 	lp	r2, 2
     938:	03 00 00 a8 	lp	r3, 0
     93c:	25 00 00 a8 	lp	r5, 1
     940:	04 00 00 a0 	lid	r4, 0
     944:	06 00 00 a1 	wgoff	r6, 0
     948:	c1 10 00 10 	add	r1, r6, r4
     94c:	24 08 00 21 	slli	r4, r1, 2
     950:	87 14 00 10 	add	r7, r4, r5
     954:	05 00 00 11 	addi	r5, r0, 0
     958:	06 00 00 a2 	size	r6, 0
     95c:	e1 10 00 11 	addi	r1, r7, 4
     960:	07 f0 ff 11 	addi	r7, r0, -4
     964:	08 14 00 10 	add	r8, r0, r5

LBB7_1:
     968:	e9 04 00 71 	lb	r9, r1[r7]
     96c:	2a 41 00 21 	slli	r10, r9, 16
     970:	4a 41 00 2d 	srai	r10, r10, 16
     974:	0b 0c 00 74 	lw	r11, r3[r0]
     978:	6c 41 00 21 	slli	r12, r11, 16
     97c:	8c 41 00 2d 	srai	r12, r12, 16
     980:	45 31 00 58 	macc	r5, r10, r12
     984:	29 41 00 2d 	srai	r9, r9, 16
     988:	28 31 00 58 	macc	r8, r9, r12
     98c:	6a 41 00 2d 	srai	r10, r11, 16
     990:	25 29 00 58 	macc	r5, r9, r10
     994:	09 04 00 74 	lw	r9, r1[r0]
     998:	29 41 00 21 	slli	r9, r9, 16
     99c:	29 41 00 2d 	srai	r9, r9, 16
     9a0:	28 29 00 58 	macc	r8, r9, r10
     9a4:	63 10 00 11 	addi	r3, r3, 4
     9a8:	21 10 00 11 	addi	r1, r1, 4
     9ac:	c6 fc ff 11 	addi	r6, r6, -1
     9b0:	06 b4 ff 63 	bne	r6, r0, -19
     9b4:	41 10 00 10 	add	r1, r2, r4
     9b8:	05 04 00 7a 	sh	r5, r1[r0]
     9bc:	21 08 00 11 	addi	r1, r1, 2
     9c0:	08 04 00 7a 	sh	r8, r1[r0]
     9c4:	00 00 00 92 	ret

xcorr_byte:
     9c8:	42 00 00 a8 	lp	r2, 2
     9cc:	03 00 00 a8 	lp	r3, 0
     9d0:	25 00 00 a8 	lp	r5, 1
     9d4:	04 00 00 a0 	lid	r4, 0
     9d8:	06 00 00 a1 	wgoff	r6, 0
     9dc:	84 18 00 10 	add	r4, r4, r6
     9e0:	a6 10 00 10 	add	r6, r5, r4
     9e4:	05 00 00 11 	addi	r5, r0, 0
     9e8:	07 00 00 a2 	size	r7, 0

LBB8_1:
     9ec:	c1 7c 00 35 	xori	r1, r6, 31
     9f0:	21 0c 00 21 	slli	r1, r1, 3
     9f4:	08 18 00 74 	lw	r8, r6[r0]
     9f8:	01 05 00 20 	sll	r1, r8, r1
     9fc:	68 7c 00 35 	xori	r8, r3, 31
     a00:	08 0d 00 21 	slli	r8, r8, 3
     a04:	09 0c 00 74 	lw	r9, r3[r0]
     a08:	28 21 00 20 	sll	r8, r9, r8
     a0c:	08 61 00 2d 	srai	r8, r8, 24
     a10:	21 60 00 2d 	srai	r1, r1, 24
     a14:	25 20 00 58 	macc	r5, r1, r8
     a18:	63 04 00 11 	addi	r3, r3, 1
     a1c:	c6 04 00 11 	addi	r6, r6, 1
     a20:	e7 fc ff 11 	addi	r7, r7, -1
     a24:	07 c4 ff 63 	bne	r7, r0, -15
     a28:	85 08 00 79 	sb	r5, r2[r4]
     a2c:	00 00 00 92 	ret

xcorr_byte_improved:
     a30:	42 00 00 a8 	lp	r2, 2
     a34:	03 00 00 a8 	lp	r3, 0
     a38:	25 00 00 a8 	lp	r5, 1
     a3c:	04 00 00 a0 	lid	r4, 0
     a40:	06 00 00 a1 	wgoff	r6, 0
     a44:	c1 10 00 10 	add	r1, r6, r4
     a48:	24 08 00 21 	slli	r4, r1, 2
     a4c:	87 14 00 10 	add	r7, r4, r5
     a50:	05 00 00 11 	addi	r5, r0, 0
     a54:	06 00 00 a2 	size	r6, 0
     a58:	e7 10 00 11 	addi	r7, r7, 4
     a5c:	09 f0 ff 11 	addi	r9, r0, -4
     a60:	01 14 00 10 	add	r1, r0, r5
     a64:	08 14 00 10 	add	r8, r0, r5
     a68:	0a 14 00 10 	add	r10, r0, r5

LBB9_1:
     a6c:	2b 1d 00 71 	lb	r11, r7[r9]
     a70:	6c 61 00 21 	slli	r12, r11, 24
     a74:	8c 61 00 2d 	srai	r12, r12, 24
     a78:	0d 0c 00 74 	lw	r13, r3[r0]
     a7c:	ae 61 00 21 	slli	r14, r13, 24
     a80:	ce 61 00 2d 	srai	r14, r14, 24
     a84:	85 39 00 58 	macc	r5, r12, r14
     a88:	6c 41 00 21 	slli	r12, r11, 16
     a8c:	8c 61 00 2d 	srai	r12, r12, 24
     a90:	af 41 00 21 	slli	r15, r13, 16
     a94:	ef 61 00 2d 	srai	r15, r15, 24
     a98:	85 3d 00 58 	macc	r5, r12, r15
     a9c:	81 39 00 58 	macc	r1, r12, r14
     aa0:	6c 21 00 21 	slli	r12, r11, 8
     aa4:	8c 61 00 2d 	srai	r12, r12, 24
     aa8:	6b 61 00 2d 	srai	r11, r11, 24
     aac:	6a 39 00 58 	macc	r10, r11, r14
     ab0:	88 39 00 58 	macc	r8, r12, r14
     ab4:	81 3d 00 58 	macc	r1, r12, r15
     ab8:	ae 21 00 21 	slli	r14, r13, 8
     abc:	ce 61 00 2d 	srai	r14, r14, 24
     ac0:	85 39 00 58 	macc	r5, r12, r14
     ac4:	68 3d 00 58 	macc	r8, r11, r15
     ac8:	0c 1c 00 74 	lw	r12, r7[r0]
     acc:	90 61 00 21 	slli	r16, r12, 24
     ad0:	10 62 00 2d 	srai	r16, r16, 24
     ad4:	0a 3e 00 58 	macc	r10, r16, r15
     ad8:	61 39 00 58 	macc	r1, r11, r14
     adc:	08 3a 00 58 	macc	r8, r16, r14
     ae0:	8f 41 00 21 	slli	r15, r12, 16
     ae4:	ef 61 00 2d 	srai	r15, r15, 24
     ae8:	ea 39 00 58 	macc	r10, r15, r14
     aec:	ad 61 00 2d 	srai	r13, r13, 24
     af0:	e8 35 00 58 	macc	r8, r15, r13
     af4:	01 36 00 58 	macc	r1, r16, r13
     af8:	65 35 00 58 	macc	r5, r11, r13
     afc:	8b 21 00 21 	slli	r11, r12, 8
     b00:	6b 61 00 2d 	srai	r11, r11, 24
     b04:	6a 35 00 58 	macc	r10, r11, r13
     b08:	63 10 00 11 	addi	r3, r3, 4
     b0c:	e7 10 00 11 	addi	r7, r7, 4
     b10:	c6 fc ff 11 	addi	r6, r6, -1
     b14:	06 54 ff 63 	bne	r6, r0, -43
     b18:	85 08 00 79 	sb	r5, r2[r4]
     b1c:	42 10 00 10 	add	r2, r2, r4
     b20:	03 0c 00 11 	addi	r3, r0, 3
     b24:	6a 08 00 79 	sb	r10, r2[r3]
     b28:	03 08 00 11 	addi	r3, r0, 2
     b2c:	68 08 00 79 	sb	r8, r2[r3]
     b30:	03 04 00 11 	addi	r3, r0, 1
     b34:	61 08 00 79 	sb	r1, r2[r3]
     b38:	00 00 00 92 	ret

xcorr_float:
     b3c:	42 00 00 a8 	lp	r2, 2
     b40:	03 00 00 a8 	lp	r3, 0
     b44:	25 00 00 a8 	lp	r5, 1
     b48:	04 00 00 a0 	lid	r4, 0
     b4c:	06 00 00 a1 	wgoff	r6, 0
     b50:	c4 10 00 10 	add	r4, r6, r4
     b54:	81 08 00 21 	slli	r1, r4, 2
     b58:	a6 04 00 10 	add	r6, r5, r1
     b5c:	05 00 00 19 	li	r5, 0
     b60:	05 00 00 1d 	lui	r5, 0
     b64:	07 00 00 a2 	size	r7, 0

LBB10_1:
     b68:	01 18 00 74 	lw	r1, r6[r0]
     b6c:	08 0c 00 74 	lw	r8, r3[r0]
     b70:	01 05 00 c1 	fmul	r1, r8, r1
     b74:	a5 04 00 c0 	fadd	r5, r5, r1
     b78:	63 10 00 11 	addi	r3, r3, 4
     b7c:	c6 10 00 11 	addi	r6, r6, 4
     b80:	e7 fc ff 11 	addi	r7, r7, -1
     b84:	07 e0 ff 63 	bne	r7, r0, -8
     b88:	85 08 00 7c 	sw	r5, r2[r4]
     b8c:	00 00 00 92 	ret
